LIBRARY "cpu_extension.dll"
EXPORTS
??0BlockingDesc@InferenceEngine@@QEAA@AEBV01@@Z
??0CpuExtensions@Cpu@Extensions@InferenceEngine@@QEAA@XZ
??0TensorDesc@InferenceEngine@@QEAA@AEBV01@@Z
??1BlockingDesc@InferenceEngine@@UEAA@XZ
??1CpuExtensions@Cpu@Extensions@InferenceEngine@@UEAA@XZ
??1TensorDesc@InferenceEngine@@UEAA@XZ
??4BlockingDesc@InferenceEngine@@QEAAAEAV01@AEBV01@@Z
??4TensorDesc@InferenceEngine@@QEAAAEAV01@AEBV01@@Z
?AddExt@CpuExtensions@Cpu@Extensions@InferenceEngine@@SAXV?$basic_string@DU?$char_traits@D@std@@V?$allocator@D@2@@std@@V?$function@$$A6APEAVILayerImplFactory@InferenceEngine@@PEBVCNNLayer@2@@Z@6@@Z
?AddShapeInferImpl@CpuExtensions@Cpu@Extensions@InferenceEngine@@SAXV?$basic_string@DU?$char_traits@D@std@@V?$allocator@D@2@@std@@AEBV?$shared_ptr@VIShapeInferImpl@InferenceEngine@@@6@@Z
?GetExtensionsHolder@CpuExtensions@Cpu@Extensions@InferenceEngine@@SA?AV?$shared_ptr@UExtensionsHolder@Cpu@Extensions@InferenceEngine@@@std@@XZ
?GetVersion@CpuExtensions@Cpu@Extensions@InferenceEngine@@UEBAXAEAPEBUVersion@4@@Z
?Release@CpuExtensions@Cpu@Extensions@InferenceEngine@@UEAAXXZ
?SetLogCallback@CpuExtensions@Cpu@Extensions@InferenceEngine@@UEAAXAEAVIErrorListener@4@@Z
?Unload@CpuExtensions@Cpu@Extensions@InferenceEngine@@UEAAXXZ
?getBlockDims@BlockingDesc@InferenceEngine@@QEBAAEBV?$vector@_KV?$allocator@_K@std@@@std@@XZ
?getBlockingDesc@TensorDesc@InferenceEngine@@QEBAAEBVBlockingDesc@2@XZ
?getDims@TensorDesc@InferenceEngine@@QEAAAEAV?$vector@_KV?$allocator@_K@std@@@std@@XZ
?getDims@TensorDesc@InferenceEngine@@QEBAAEBV?$vector@_KV?$allocator@_K@std@@@std@@XZ
?getFactoryFor@CpuExtensions@Cpu@Extensions@InferenceEngine@@UEAA?AW4StatusCode@4@AEAPEAVILayerImplFactory@4@PEBVCNNLayer@4@PEAUResponseDesc@4@@Z
?getLayout@TensorDesc@InferenceEngine@@QEBA?AW4Layout@2@XZ
?getOffsetPadding@BlockingDesc@InferenceEngine@@QEBA_KXZ
?getOffsetPaddingToData@BlockingDesc@InferenceEngine@@QEBAAEBV?$vector@_KV?$allocator@_K@std@@@std@@XZ
?getOrder@BlockingDesc@InferenceEngine@@QEBAAEBV?$vector@_KV?$allocator@_K@std@@@std@@XZ
?getPrecision@TensorDesc@InferenceEngine@@QEBAAEBVPrecision@2@XZ
?getPrimitiveTypes@CpuExtensions@Cpu@Extensions@InferenceEngine@@UEAA?AW4StatusCode@4@AEAPEAPEADAEAIPEAUResponseDesc@4@@Z
?getShapeInferImpl@CpuExtensions@Cpu@Extensions@InferenceEngine@@UEAA?AW4StatusCode@4@AEAV?$shared_ptr@VIShapeInferImpl@InferenceEngine@@@std@@PEBDPEAUResponseDesc@4@@Z
?getShapeInferTypes@CpuExtensions@Cpu@Extensions@InferenceEngine@@UEAA?AW4StatusCode@4@AEAPEAPEADAEAIPEAUResponseDesc@4@@Z
?getStrides@BlockingDesc@InferenceEngine@@QEBAAEBV?$vector@_KV?$allocator@_K@std@@@std@@XZ
?setLayout@TensorDesc@InferenceEngine@@QEAAXW4Layout@2@@Z
?setPrecision@TensorDesc@InferenceEngine@@QEAAXAEBVPrecision@2@@Z
?simple_copy@@YAHPEAX_KPEBX1@Z
CreateExtension
CreateShapeInferExtension
