LIBRARY "inference_engine.dll"
EXPORTS
??0?$enable_shared_from_this@VLayer@Builder@InferenceEngine@@@std@@IEAA@AEBV01@@Z
??0?$enable_shared_from_this@VLayer@Builder@InferenceEngine@@@std@@IEAA@XZ
??0ArgMaxLayer@Builder@InferenceEngine@@QEAA@$$QEAV012@@Z
??0ArgMaxLayer@Builder@InferenceEngine@@QEAA@AEBV012@@Z
??0ArgMaxLayer@Builder@InferenceEngine@@QEAA@AEBV?$basic_string@DU?$char_traits@D@std@@V?$allocator@D@2@@std@@@Z
??0ArgMaxLayer@Builder@InferenceEngine@@QEAA@AEBV?$shared_ptr@$$CBVLayer@Builder@InferenceEngine@@@std@@@Z
??0ArgMaxLayer@Builder@InferenceEngine@@QEAA@AEBV?$shared_ptr@VLayer@Builder@InferenceEngine@@@std@@@Z
??0BatchNormalizationLayer@Builder@InferenceEngine@@QEAA@$$QEAV012@@Z
??0BatchNormalizationLayer@Builder@InferenceEngine@@QEAA@AEBV012@@Z
??0BatchNormalizationLayer@Builder@InferenceEngine@@QEAA@AEBV?$basic_string@DU?$char_traits@D@std@@V?$allocator@D@2@@std@@@Z
??0BatchNormalizationLayer@Builder@InferenceEngine@@QEAA@AEBV?$shared_ptr@$$CBVLayer@Builder@InferenceEngine@@@std@@@Z
??0BatchNormalizationLayer@Builder@InferenceEngine@@QEAA@AEBV?$shared_ptr@VLayer@Builder@InferenceEngine@@@std@@@Z
??0BlockingDesc@InferenceEngine@@QEAA@AEBV01@@Z
??0BlockingDesc@InferenceEngine@@QEAA@AEBV?$vector@_KV?$allocator@_K@std@@@std@@0@Z
??0BlockingDesc@InferenceEngine@@QEAA@AEBV?$vector@_KV?$allocator@_K@std@@@std@@0_K@Z
??0BlockingDesc@InferenceEngine@@QEAA@AEBV?$vector@_KV?$allocator@_K@std@@@std@@0_KV23@2@Z
??0BlockingDesc@InferenceEngine@@QEAA@AEBV?$vector@_KV?$allocator@_K@std@@@std@@0_KV23@@Z
??0BlockingDesc@InferenceEngine@@QEAA@AEBV?$vector@_KV?$allocator@_K@std@@@std@@W4Layout@1@@Z
??0BlockingDesc@InferenceEngine@@QEAA@XZ
??0BuiltInShapeInferHolder@ShapeInfer@InferenceEngine@@QEAA@XZ
??0CNNNetworkImpl@details@InferenceEngine@@QEAA@XZ
??0CNNNetworkInt8Normalizer@details@InferenceEngine@@QEAA@$$QEAV012@@Z
??0CNNNetworkInt8Normalizer@details@InferenceEngine@@QEAA@XZ
??0CNNNetworkStatsImpl@details@InferenceEngine@@QEAA@XZ
??0CTCGreedyDecoderLayer@Builder@InferenceEngine@@QEAA@$$QEAV012@@Z
??0CTCGreedyDecoderLayer@Builder@InferenceEngine@@QEAA@AEBV012@@Z
??0CTCGreedyDecoderLayer@Builder@InferenceEngine@@QEAA@AEBV?$basic_string@DU?$char_traits@D@std@@V?$allocator@D@2@@std@@@Z
??0CTCGreedyDecoderLayer@Builder@InferenceEngine@@QEAA@AEBV?$shared_ptr@$$CBVLayer@Builder@InferenceEngine@@@std@@@Z
??0CTCGreedyDecoderLayer@Builder@InferenceEngine@@QEAA@AEBV?$shared_ptr@VLayer@Builder@InferenceEngine@@@std@@@Z
??0ClampLayer@Builder@InferenceEngine@@QEAA@$$QEAV012@@Z
??0ClampLayer@Builder@InferenceEngine@@QEAA@AEBV012@@Z
??0ClampLayer@Builder@InferenceEngine@@QEAA@AEBV?$basic_string@DU?$char_traits@D@std@@V?$allocator@D@2@@std@@@Z
??0ClampLayer@Builder@InferenceEngine@@QEAA@AEBV?$shared_ptr@$$CBVLayer@Builder@InferenceEngine@@@std@@@Z
??0ClampLayer@Builder@InferenceEngine@@QEAA@AEBV?$shared_ptr@VLayer@Builder@InferenceEngine@@@std@@@Z
??0CompoundBlob@InferenceEngine@@IEAA@XZ
??0CompoundBlob@InferenceEngine@@QEAA@$$QEAV01@@Z
??0CompoundBlob@InferenceEngine@@QEAA@$$QEAV?$vector@V?$shared_ptr@VBlob@InferenceEngine@@@std@@V?$allocator@V?$shared_ptr@VBlob@InferenceEngine@@@std@@@2@@std@@@Z
??0CompoundBlob@InferenceEngine@@QEAA@AEBV01@@Z
??0CompoundBlob@InferenceEngine@@QEAA@AEBV?$vector@V?$shared_ptr@VBlob@InferenceEngine@@@std@@V?$allocator@V?$shared_ptr@VBlob@InferenceEngine@@@std@@@2@@std@@@Z
??0ConcatLayer@Builder@InferenceEngine@@QEAA@$$QEAV012@@Z
??0ConcatLayer@Builder@InferenceEngine@@QEAA@AEBV012@@Z
??0ConcatLayer@Builder@InferenceEngine@@QEAA@AEBV?$basic_string@DU?$char_traits@D@std@@V?$allocator@D@2@@std@@@Z
??0ConcatLayer@Builder@InferenceEngine@@QEAA@AEBV?$shared_ptr@$$CBVLayer@Builder@InferenceEngine@@@std@@@Z
??0ConcatLayer@Builder@InferenceEngine@@QEAA@AEBV?$shared_ptr@VLayer@Builder@InferenceEngine@@@std@@@Z
??0ConstLayer@Builder@InferenceEngine@@QEAA@$$QEAV012@@Z
??0ConstLayer@Builder@InferenceEngine@@QEAA@AEBV012@@Z
??0ConstLayer@Builder@InferenceEngine@@QEAA@AEBV?$basic_string@DU?$char_traits@D@std@@V?$allocator@D@2@@std@@@Z
??0ConstLayer@Builder@InferenceEngine@@QEAA@AEBV?$shared_ptr@$$CBVLayer@Builder@InferenceEngine@@@std@@@Z
??0ConstLayer@Builder@InferenceEngine@@QEAA@AEBV?$shared_ptr@VLayer@Builder@InferenceEngine@@@std@@@Z
??0ConstTransformer@InferenceEngine@@QEAA@AEBV01@@Z
??0ConstTransformer@InferenceEngine@@QEAA@PEAVCNNNetworkImpl@details@1@@Z
??0Context@InferenceEngine@@QEAA@$$QEAV01@@Z
??0Context@InferenceEngine@@QEAA@AEBV01@@Z
??0Context@InferenceEngine@@QEAA@XZ
??0ConvolutionLayer@Builder@InferenceEngine@@QEAA@$$QEAV012@@Z
??0ConvolutionLayer@Builder@InferenceEngine@@QEAA@AEBV012@@Z
??0ConvolutionLayer@Builder@InferenceEngine@@QEAA@AEBV?$basic_string@DU?$char_traits@D@std@@V?$allocator@D@2@@std@@@Z
??0ConvolutionLayer@Builder@InferenceEngine@@QEAA@AEBV?$shared_ptr@$$CBVLayer@Builder@InferenceEngine@@@std@@@Z
??0ConvolutionLayer@Builder@InferenceEngine@@QEAA@AEBV?$shared_ptr@VLayer@Builder@InferenceEngine@@@std@@@Z
??0Core@InferenceEngine@@QEAA@$$QEAV01@@Z
??0Core@InferenceEngine@@QEAA@AEBV01@@Z
??0Core@InferenceEngine@@QEAA@AEBV?$basic_string@DU?$char_traits@D@std@@V?$allocator@D@2@@std@@@Z
??0CropLayer@Builder@InferenceEngine@@QEAA@$$QEAV012@@Z
??0CropLayer@Builder@InferenceEngine@@QEAA@AEBV012@@Z
??0CropLayer@Builder@InferenceEngine@@QEAA@AEBV?$basic_string@DU?$char_traits@D@std@@V?$allocator@D@2@@std@@@Z
??0CropLayer@Builder@InferenceEngine@@QEAA@AEBV?$shared_ptr@$$CBVLayer@Builder@InferenceEngine@@@std@@@Z
??0CropLayer@Builder@InferenceEngine@@QEAA@AEBV?$shared_ptr@VLayer@Builder@InferenceEngine@@@std@@@Z
??0Data@InferenceEngine@@QEAA@AEBV01@@Z
??0Data@InferenceEngine@@QEAA@AEBV?$basic_string@DU?$char_traits@D@std@@V?$allocator@D@2@@std@@AEBV?$vector@_KV?$allocator@_K@std@@@3@VPrecision@1@W4Layout@1@@Z
??0Data@InferenceEngine@@QEAA@AEBV?$basic_string@DU?$char_traits@D@std@@V?$allocator@D@2@@std@@AEBVTensorDesc@1@@Z
??0Data@InferenceEngine@@QEAA@AEBV?$basic_string@DU?$char_traits@D@std@@V?$allocator@D@2@@std@@VPrecision@1@W4Layout@1@@Z
??0DeconvolutionLayer@Builder@InferenceEngine@@QEAA@$$QEAV012@@Z
??0DeconvolutionLayer@Builder@InferenceEngine@@QEAA@AEBV012@@Z
??0DeconvolutionLayer@Builder@InferenceEngine@@QEAA@AEBV?$basic_string@DU?$char_traits@D@std@@V?$allocator@D@2@@std@@@Z
??0DeconvolutionLayer@Builder@InferenceEngine@@QEAA@AEBV?$shared_ptr@$$CBVLayer@Builder@InferenceEngine@@@std@@@Z
??0DeconvolutionLayer@Builder@InferenceEngine@@QEAA@AEBV?$shared_ptr@VLayer@Builder@InferenceEngine@@@std@@@Z
??0DeformableConvolutionLayer@Builder@InferenceEngine@@QEAA@$$QEAV012@@Z
??0DeformableConvolutionLayer@Builder@InferenceEngine@@QEAA@AEBV012@@Z
??0DeformableConvolutionLayer@Builder@InferenceEngine@@QEAA@AEBV?$basic_string@DU?$char_traits@D@std@@V?$allocator@D@2@@std@@@Z
??0DeformableConvolutionLayer@Builder@InferenceEngine@@QEAA@AEBV?$shared_ptr@$$CBVLayer@Builder@InferenceEngine@@@std@@@Z
??0DeformableConvolutionLayer@Builder@InferenceEngine@@QEAA@AEBV?$shared_ptr@VLayer@Builder@InferenceEngine@@@std@@@Z
??0DetectionOutputLayer@Builder@InferenceEngine@@QEAA@$$QEAV012@@Z
??0DetectionOutputLayer@Builder@InferenceEngine@@QEAA@AEBV012@@Z
??0DetectionOutputLayer@Builder@InferenceEngine@@QEAA@AEBV?$basic_string@DU?$char_traits@D@std@@V?$allocator@D@2@@std@@@Z
??0DetectionOutputLayer@Builder@InferenceEngine@@QEAA@AEBV?$shared_ptr@$$CBVLayer@Builder@InferenceEngine@@@std@@@Z
??0DetectionOutputLayer@Builder@InferenceEngine@@QEAA@AEBV?$shared_ptr@VLayer@Builder@InferenceEngine@@@std@@@Z
??0DeviceIDParser@InferenceEngine@@QEAA@$$QEAV01@@Z
??0DeviceIDParser@InferenceEngine@@QEAA@AEBV01@@Z
??0DeviceIDParser@InferenceEngine@@QEAA@AEBV?$basic_string@DU?$char_traits@D@std@@V?$allocator@D@2@@std@@@Z
??0ELULayer@Builder@InferenceEngine@@QEAA@$$QEAV012@@Z
??0ELULayer@Builder@InferenceEngine@@QEAA@AEBV012@@Z
??0ELULayer@Builder@InferenceEngine@@QEAA@AEBV?$basic_string@DU?$char_traits@D@std@@V?$allocator@D@2@@std@@@Z
??0ELULayer@Builder@InferenceEngine@@QEAA@AEBV?$shared_ptr@$$CBVLayer@Builder@InferenceEngine@@@std@@@Z
??0ELULayer@Builder@InferenceEngine@@QEAA@AEBV?$shared_ptr@VLayer@Builder@InferenceEngine@@@std@@@Z
??0EltwiseLayer@Builder@InferenceEngine@@QEAA@$$QEAV012@@Z
??0EltwiseLayer@Builder@InferenceEngine@@QEAA@AEBV012@@Z
??0EltwiseLayer@Builder@InferenceEngine@@QEAA@AEBV?$basic_string@DU?$char_traits@D@std@@V?$allocator@D@2@@std@@@Z
??0EltwiseLayer@Builder@InferenceEngine@@QEAA@AEBV?$shared_ptr@$$CBVLayer@Builder@InferenceEngine@@@std@@@Z
??0EltwiseLayer@Builder@InferenceEngine@@QEAA@AEBV?$shared_ptr@VLayer@Builder@InferenceEngine@@@std@@@Z
??0ExecutorManager@InferenceEngine@@AEAA@XZ
??0FormatParser@details@InferenceEngine@@QEAA@$$QEAV012@@Z
??0FormatParser@details@InferenceEngine@@QEAA@AEBV012@@Z
??0FormatParser@details@InferenceEngine@@QEAA@_K@Z
??0FullyConnectedLayer@Builder@InferenceEngine@@QEAA@$$QEAV012@@Z
??0FullyConnectedLayer@Builder@InferenceEngine@@QEAA@AEBV012@@Z
??0FullyConnectedLayer@Builder@InferenceEngine@@QEAA@AEBV?$basic_string@DU?$char_traits@D@std@@V?$allocator@D@2@@std@@@Z
??0FullyConnectedLayer@Builder@InferenceEngine@@QEAA@AEBV?$shared_ptr@$$CBVLayer@Builder@InferenceEngine@@@std@@@Z
??0FullyConnectedLayer@Builder@InferenceEngine@@QEAA@AEBV?$shared_ptr@VLayer@Builder@InferenceEngine@@@std@@@Z
??0GRNLayer@Builder@InferenceEngine@@QEAA@$$QEAV012@@Z
??0GRNLayer@Builder@InferenceEngine@@QEAA@AEBV012@@Z
??0GRNLayer@Builder@InferenceEngine@@QEAA@AEBV?$basic_string@DU?$char_traits@D@std@@V?$allocator@D@2@@std@@@Z
??0GRNLayer@Builder@InferenceEngine@@QEAA@AEBV?$shared_ptr@$$CBVLayer@Builder@InferenceEngine@@@std@@@Z
??0GRNLayer@Builder@InferenceEngine@@QEAA@AEBV?$shared_ptr@VLayer@Builder@InferenceEngine@@@std@@@Z
??0GRUSequenceLayer@Builder@InferenceEngine@@QEAA@$$QEAV012@@Z
??0GRUSequenceLayer@Builder@InferenceEngine@@QEAA@AEBV012@@Z
??0GRUSequenceLayer@Builder@InferenceEngine@@QEAA@AEBV?$basic_string@DU?$char_traits@D@std@@V?$allocator@D@2@@std@@@Z
??0GRUSequenceLayer@Builder@InferenceEngine@@QEAA@AEBV?$shared_ptr@$$CBVLayer@Builder@InferenceEngine@@@std@@@Z
??0GRUSequenceLayer@Builder@InferenceEngine@@QEAA@AEBV?$shared_ptr@VLayer@Builder@InferenceEngine@@@std@@@Z
??0IHeteroDeviceLoader@InferenceEngine@@QEAA@AEBV01@@Z
??0IHeteroDeviceLoader@InferenceEngine@@QEAA@XZ
??0IHeteroInferencePlugin@InferenceEngine@@QEAA@XZ
??0ITaskExecutor@InferenceEngine@@QEAA@AEBV01@@Z
??0ITaskExecutor@InferenceEngine@@QEAA@XZ
??0InputLayer@Builder@InferenceEngine@@QEAA@$$QEAV012@@Z
??0InputLayer@Builder@InferenceEngine@@QEAA@AEBV012@@Z
??0InputLayer@Builder@InferenceEngine@@QEAA@AEBV?$basic_string@DU?$char_traits@D@std@@V?$allocator@D@2@@std@@@Z
??0InputLayer@Builder@InferenceEngine@@QEAA@AEBV?$shared_ptr@$$CBVLayer@Builder@InferenceEngine@@@std@@@Z
??0InputLayer@Builder@InferenceEngine@@QEAA@AEBV?$shared_ptr@VLayer@Builder@InferenceEngine@@@std@@@Z
??0LRNLayer@Builder@InferenceEngine@@QEAA@$$QEAV012@@Z
??0LRNLayer@Builder@InferenceEngine@@QEAA@AEBV012@@Z
??0LRNLayer@Builder@InferenceEngine@@QEAA@AEBV?$basic_string@DU?$char_traits@D@std@@V?$allocator@D@2@@std@@@Z
??0LRNLayer@Builder@InferenceEngine@@QEAA@AEBV?$shared_ptr@$$CBVLayer@Builder@InferenceEngine@@@std@@@Z
??0LRNLayer@Builder@InferenceEngine@@QEAA@AEBV?$shared_ptr@VLayer@Builder@InferenceEngine@@@std@@@Z
??0LSTMSequenceLayer@Builder@InferenceEngine@@QEAA@$$QEAV012@@Z
??0LSTMSequenceLayer@Builder@InferenceEngine@@QEAA@AEBV012@@Z
??0LSTMSequenceLayer@Builder@InferenceEngine@@QEAA@AEBV?$basic_string@DU?$char_traits@D@std@@V?$allocator@D@2@@std@@@Z
??0LSTMSequenceLayer@Builder@InferenceEngine@@QEAA@AEBV?$shared_ptr@$$CBVLayer@Builder@InferenceEngine@@@std@@@Z
??0LSTMSequenceLayer@Builder@InferenceEngine@@QEAA@AEBV?$shared_ptr@VLayer@Builder@InferenceEngine@@@std@@@Z
??0LauncherCreator@ShapeInfer@InferenceEngine@@QEAA@AEBV012@@Z
??0LauncherCreator@ShapeInfer@InferenceEngine@@QEAA@XZ
??0Layer@Builder@InferenceEngine@@QEAA@$$QEAV012@@Z
??0Layer@Builder@InferenceEngine@@QEAA@AEBV012@@Z
??0Layer@Builder@InferenceEngine@@QEAA@AEBV?$basic_string@DU?$char_traits@D@std@@V?$allocator@D@2@@std@@0@Z
??0Layer@Builder@InferenceEngine@@QEAA@AEBV?$shared_ptr@$$CBVILayer@InferenceEngine@@@std@@@Z
??0Layer@Builder@InferenceEngine@@QEAA@_KAEBV012@@Z
??0LayerDecorator@Builder@InferenceEngine@@QEAA@AEBV012@@Z
??0LayerDecorator@Builder@InferenceEngine@@QEAA@AEBV?$basic_string@DU?$char_traits@D@std@@V?$allocator@D@2@@std@@0@Z
??0LayerDecorator@Builder@InferenceEngine@@QEAA@AEBV?$shared_ptr@$$CBVLayer@Builder@InferenceEngine@@@std@@@Z
??0LayerDecorator@Builder@InferenceEngine@@QEAA@AEBV?$shared_ptr@VLayer@Builder@InferenceEngine@@@std@@@Z
??0LayoutOffsetCounter@InferenceEngine@@QEAA@AEBV01@@Z
??0LayoutOffsetCounter@InferenceEngine@@QEAA@W4Layout@1@V?$vector@_KV?$allocator@_K@std@@@std@@@Z
??0MVNLayer@Builder@InferenceEngine@@QEAA@$$QEAV012@@Z
??0MVNLayer@Builder@InferenceEngine@@QEAA@AEBV012@@Z
??0MVNLayer@Builder@InferenceEngine@@QEAA@AEBV?$basic_string@DU?$char_traits@D@std@@V?$allocator@D@2@@std@@@Z
??0MVNLayer@Builder@InferenceEngine@@QEAA@AEBV?$shared_ptr@$$CBVLayer@Builder@InferenceEngine@@@std@@@Z
??0MVNLayer@Builder@InferenceEngine@@QEAA@AEBV?$shared_ptr@VLayer@Builder@InferenceEngine@@@std@@@Z
??0MemoryLayer@Builder@InferenceEngine@@QEAA@$$QEAV012@@Z
??0MemoryLayer@Builder@InferenceEngine@@QEAA@AEBV012@@Z
??0MemoryLayer@Builder@InferenceEngine@@QEAA@AEBV?$basic_string@DU?$char_traits@D@std@@V?$allocator@D@2@@std@@@Z
??0MemoryLayer@Builder@InferenceEngine@@QEAA@AEBV?$shared_ptr@$$CBVLayer@Builder@InferenceEngine@@@std@@@Z
??0MemoryLayer@Builder@InferenceEngine@@QEAA@AEBV?$shared_ptr@VLayer@Builder@InferenceEngine@@@std@@@Z
??0NV12Blob@InferenceEngine@@QEAA@$$QEAV01@@Z
??0NV12Blob@InferenceEngine@@QEAA@$$QEAV?$shared_ptr@VBlob@InferenceEngine@@@std@@0@Z
??0NV12Blob@InferenceEngine@@QEAA@AEBV01@@Z
??0NV12Blob@InferenceEngine@@QEAA@AEBV?$shared_ptr@VBlob@InferenceEngine@@@std@@0@Z
??0Network@Builder@InferenceEngine@@QEAA@$$QEAV012@@Z
??0Network@Builder@InferenceEngine@@QEAA@AEBV012@@Z
??0Network@Builder@InferenceEngine@@QEAA@AEBV?$basic_string@DU?$char_traits@D@std@@V?$allocator@D@2@@std@@@Z
??0Network@Builder@InferenceEngine@@QEAA@AEBVContext@2@AEBV?$basic_string@DU?$char_traits@D@std@@V?$allocator@D@2@@std@@@Z
??0Network@Builder@InferenceEngine@@QEAA@AEBVContext@2@AEBVICNNNetwork@2@@Z
??0Network@Builder@InferenceEngine@@QEAA@AEBVContext@2@AEBVINetwork@2@@Z
??0Network@Builder@InferenceEngine@@QEAA@AEBVICNNNetwork@2@@Z
??0Network@Builder@InferenceEngine@@QEAA@AEBVINetwork@2@@Z
??0NormLayer@Builder@InferenceEngine@@QEAA@$$QEAV012@@Z
??0NormLayer@Builder@InferenceEngine@@QEAA@AEBV012@@Z
??0NormLayer@Builder@InferenceEngine@@QEAA@AEBV?$basic_string@DU?$char_traits@D@std@@V?$allocator@D@2@@std@@@Z
??0NormLayer@Builder@InferenceEngine@@QEAA@AEBV?$shared_ptr@$$CBVLayer@Builder@InferenceEngine@@@std@@@Z
??0NormLayer@Builder@InferenceEngine@@QEAA@AEBV?$shared_ptr@VLayer@Builder@InferenceEngine@@@std@@@Z
??0NormalizeLayer@Builder@InferenceEngine@@QEAA@$$QEAV012@@Z
??0NormalizeLayer@Builder@InferenceEngine@@QEAA@AEBV012@@Z
??0NormalizeLayer@Builder@InferenceEngine@@QEAA@AEBV?$basic_string@DU?$char_traits@D@std@@V?$allocator@D@2@@std@@@Z
??0NormalizeLayer@Builder@InferenceEngine@@QEAA@AEBV?$shared_ptr@$$CBVLayer@Builder@InferenceEngine@@@std@@@Z
??0NormalizeLayer@Builder@InferenceEngine@@QEAA@AEBV?$shared_ptr@VLayer@Builder@InferenceEngine@@@std@@@Z
??0OutputLayer@Builder@InferenceEngine@@QEAA@$$QEAV012@@Z
??0OutputLayer@Builder@InferenceEngine@@QEAA@AEBV012@@Z
??0OutputLayer@Builder@InferenceEngine@@QEAA@AEBV?$basic_string@DU?$char_traits@D@std@@V?$allocator@D@2@@std@@@Z
??0OutputLayer@Builder@InferenceEngine@@QEAA@AEBV?$shared_ptr@$$CBVLayer@Builder@InferenceEngine@@@std@@@Z
??0OutputLayer@Builder@InferenceEngine@@QEAA@AEBV?$shared_ptr@VLayer@Builder@InferenceEngine@@@std@@@Z
??0PReLULayer@Builder@InferenceEngine@@QEAA@$$QEAV012@@Z
??0PReLULayer@Builder@InferenceEngine@@QEAA@AEBV012@@Z
??0PReLULayer@Builder@InferenceEngine@@QEAA@AEBV?$basic_string@DU?$char_traits@D@std@@V?$allocator@D@2@@std@@@Z
??0PReLULayer@Builder@InferenceEngine@@QEAA@AEBV?$shared_ptr@$$CBVLayer@Builder@InferenceEngine@@@std@@@Z
??0PReLULayer@Builder@InferenceEngine@@QEAA@AEBV?$shared_ptr@VLayer@Builder@InferenceEngine@@@std@@@Z
??0PSROIPoolingLayer@Builder@InferenceEngine@@QEAA@$$QEAV012@@Z
??0PSROIPoolingLayer@Builder@InferenceEngine@@QEAA@AEBV012@@Z
??0PSROIPoolingLayer@Builder@InferenceEngine@@QEAA@AEBV?$basic_string@DU?$char_traits@D@std@@V?$allocator@D@2@@std@@@Z
??0PSROIPoolingLayer@Builder@InferenceEngine@@QEAA@AEBV?$shared_ptr@$$CBVLayer@Builder@InferenceEngine@@@std@@@Z
??0PSROIPoolingLayer@Builder@InferenceEngine@@QEAA@AEBV?$shared_ptr@VLayer@Builder@InferenceEngine@@@std@@@Z
??0Paddings@InferenceEngine@@QEAA@$$QEAV01@@Z
??0Paddings@InferenceEngine@@QEAA@XZ
??0PermuteLayer@Builder@InferenceEngine@@QEAA@$$QEAV012@@Z
??0PermuteLayer@Builder@InferenceEngine@@QEAA@AEBV012@@Z
??0PermuteLayer@Builder@InferenceEngine@@QEAA@AEBV?$basic_string@DU?$char_traits@D@std@@V?$allocator@D@2@@std@@@Z
??0PermuteLayer@Builder@InferenceEngine@@QEAA@AEBV?$shared_ptr@$$CBVLayer@Builder@InferenceEngine@@@std@@@Z
??0PermuteLayer@Builder@InferenceEngine@@QEAA@AEBV?$shared_ptr@VLayer@Builder@InferenceEngine@@@std@@@Z
??0PluginDispatcher@InferenceEngine@@QEAA@$$QEAV01@@Z
??0PluginDispatcher@InferenceEngine@@QEAA@AEBV01@@Z
??0PluginDispatcher@InferenceEngine@@QEAA@AEBV?$vector@V?$basic_string@DU?$char_traits@D@std@@V?$allocator@D@2@@std@@V?$allocator@V?$basic_string@DU?$char_traits@D@std@@V?$allocator@D@2@@std@@@2@@std@@@Z
??0PoolingLayer@Builder@InferenceEngine@@QEAA@$$QEAV012@@Z
??0PoolingLayer@Builder@InferenceEngine@@QEAA@AEBV012@@Z
??0PoolingLayer@Builder@InferenceEngine@@QEAA@AEBV?$basic_string@DU?$char_traits@D@std@@V?$allocator@D@2@@std@@@Z
??0PoolingLayer@Builder@InferenceEngine@@QEAA@AEBV?$shared_ptr@$$CBVLayer@Builder@InferenceEngine@@@std@@@Z
??0PoolingLayer@Builder@InferenceEngine@@QEAA@AEBV?$shared_ptr@VLayer@Builder@InferenceEngine@@@std@@@Z
??0Port@InferenceEngine@@QEAA@AEBV01@@Z
??0Port@InferenceEngine@@QEAA@AEBV?$vector@_KV?$allocator@_K@std@@@std@@AEBVPrecision@1@@Z
??0Port@InferenceEngine@@QEAA@XZ
??0PortData@InferenceEngine@@QEAA@AEBV01@@Z
??0PortData@InferenceEngine@@QEAA@AEBV?$vector@_KV?$allocator@_K@std@@@std@@AEBVPrecision@1@@Z
??0PortData@InferenceEngine@@QEAA@XZ
??0PowerLayer@Builder@InferenceEngine@@QEAA@$$QEAV012@@Z
??0PowerLayer@Builder@InferenceEngine@@QEAA@AEBV012@@Z
??0PowerLayer@Builder@InferenceEngine@@QEAA@AEBV?$basic_string@DU?$char_traits@D@std@@V?$allocator@D@2@@std@@@Z
??0PowerLayer@Builder@InferenceEngine@@QEAA@AEBV?$shared_ptr@$$CBVLayer@Builder@InferenceEngine@@@std@@@Z
??0PowerLayer@Builder@InferenceEngine@@QEAA@AEBV?$shared_ptr@VLayer@Builder@InferenceEngine@@@std@@@Z
??0PreProcessData@InferenceEngine@@QEAA@$$QEAV01@@Z
??0PreProcessData@InferenceEngine@@QEAA@AEBV01@@Z
??0PreProcessData@InferenceEngine@@QEAA@XZ
??0PriorBoxClusteredLayer@Builder@InferenceEngine@@QEAA@$$QEAV012@@Z
??0PriorBoxClusteredLayer@Builder@InferenceEngine@@QEAA@AEBV012@@Z
??0PriorBoxClusteredLayer@Builder@InferenceEngine@@QEAA@AEBV?$basic_string@DU?$char_traits@D@std@@V?$allocator@D@2@@std@@@Z
??0PriorBoxClusteredLayer@Builder@InferenceEngine@@QEAA@AEBV?$shared_ptr@$$CBVLayer@Builder@InferenceEngine@@@std@@@Z
??0PriorBoxClusteredLayer@Builder@InferenceEngine@@QEAA@AEBV?$shared_ptr@VLayer@Builder@InferenceEngine@@@std@@@Z
??0PriorBoxLayer@Builder@InferenceEngine@@QEAA@$$QEAV012@@Z
??0PriorBoxLayer@Builder@InferenceEngine@@QEAA@AEBV012@@Z
??0PriorBoxLayer@Builder@InferenceEngine@@QEAA@AEBV?$basic_string@DU?$char_traits@D@std@@V?$allocator@D@2@@std@@@Z
??0PriorBoxLayer@Builder@InferenceEngine@@QEAA@AEBV?$shared_ptr@$$CBVLayer@Builder@InferenceEngine@@@std@@@Z
??0PriorBoxLayer@Builder@InferenceEngine@@QEAA@AEBV?$shared_ptr@VLayer@Builder@InferenceEngine@@@std@@@Z
??0ProposalLayer@Builder@InferenceEngine@@QEAA@$$QEAV012@@Z
??0ProposalLayer@Builder@InferenceEngine@@QEAA@AEBV012@@Z
??0ProposalLayer@Builder@InferenceEngine@@QEAA@AEBV?$basic_string@DU?$char_traits@D@std@@V?$allocator@D@2@@std@@@Z
??0ProposalLayer@Builder@InferenceEngine@@QEAA@AEBV?$shared_ptr@$$CBVLayer@Builder@InferenceEngine@@@std@@@Z
??0ProposalLayer@Builder@InferenceEngine@@QEAA@AEBV?$shared_ptr@VLayer@Builder@InferenceEngine@@@std@@@Z
??0QueryNetworkResult@InferenceEngine@@QEAA@AEBU01@@Z
??0QueryNetworkResult@InferenceEngine@@QEAA@XZ
??0RNNSequenceLayer@Builder@InferenceEngine@@QEAA@$$QEAV012@@Z
??0RNNSequenceLayer@Builder@InferenceEngine@@QEAA@AEBV012@@Z
??0RNNSequenceLayer@Builder@InferenceEngine@@QEAA@AEBV?$basic_string@DU?$char_traits@D@std@@V?$allocator@D@2@@std@@@Z
??0RNNSequenceLayer@Builder@InferenceEngine@@QEAA@AEBV?$shared_ptr@$$CBVLayer@Builder@InferenceEngine@@@std@@@Z
??0RNNSequenceLayer@Builder@InferenceEngine@@QEAA@AEBV?$shared_ptr@VLayer@Builder@InferenceEngine@@@std@@@Z
??0ROIPoolingLayer@Builder@InferenceEngine@@QEAA@$$QEAV012@@Z
??0ROIPoolingLayer@Builder@InferenceEngine@@QEAA@AEBV012@@Z
??0ROIPoolingLayer@Builder@InferenceEngine@@QEAA@AEBV?$basic_string@DU?$char_traits@D@std@@V?$allocator@D@2@@std@@@Z
??0ROIPoolingLayer@Builder@InferenceEngine@@QEAA@AEBV?$shared_ptr@$$CBVLayer@Builder@InferenceEngine@@@std@@@Z
??0ROIPoolingLayer@Builder@InferenceEngine@@QEAA@AEBV?$shared_ptr@VLayer@Builder@InferenceEngine@@@std@@@Z
??0ReLU6Layer@Builder@InferenceEngine@@QEAA@$$QEAV012@@Z
??0ReLU6Layer@Builder@InferenceEngine@@QEAA@AEBV012@@Z
??0ReLU6Layer@Builder@InferenceEngine@@QEAA@AEBV?$basic_string@DU?$char_traits@D@std@@V?$allocator@D@2@@std@@@Z
??0ReLU6Layer@Builder@InferenceEngine@@QEAA@AEBV?$shared_ptr@$$CBVLayer@Builder@InferenceEngine@@@std@@@Z
??0ReLU6Layer@Builder@InferenceEngine@@QEAA@AEBV?$shared_ptr@VLayer@Builder@InferenceEngine@@@std@@@Z
??0ReLULayer@Builder@InferenceEngine@@QEAA@$$QEAV012@@Z
??0ReLULayer@Builder@InferenceEngine@@QEAA@AEBV012@@Z
??0ReLULayer@Builder@InferenceEngine@@QEAA@AEBV?$basic_string@DU?$char_traits@D@std@@V?$allocator@D@2@@std@@@Z
??0ReLULayer@Builder@InferenceEngine@@QEAA@AEBV?$shared_ptr@$$CBVLayer@Builder@InferenceEngine@@@std@@@Z
??0ReLULayer@Builder@InferenceEngine@@QEAA@AEBV?$shared_ptr@VLayer@Builder@InferenceEngine@@@std@@@Z
??0RegionYoloLayer@Builder@InferenceEngine@@QEAA@$$QEAV012@@Z
??0RegionYoloLayer@Builder@InferenceEngine@@QEAA@AEBV012@@Z
??0RegionYoloLayer@Builder@InferenceEngine@@QEAA@AEBV?$basic_string@DU?$char_traits@D@std@@V?$allocator@D@2@@std@@@Z
??0RegionYoloLayer@Builder@InferenceEngine@@QEAA@AEBV?$shared_ptr@$$CBVLayer@Builder@InferenceEngine@@@std@@@Z
??0RegionYoloLayer@Builder@InferenceEngine@@QEAA@AEBV?$shared_ptr@VLayer@Builder@InferenceEngine@@@std@@@Z
??0ReorgYoloLayer@Builder@InferenceEngine@@QEAA@$$QEAV012@@Z
??0ReorgYoloLayer@Builder@InferenceEngine@@QEAA@AEBV012@@Z
??0ReorgYoloLayer@Builder@InferenceEngine@@QEAA@AEBV?$basic_string@DU?$char_traits@D@std@@V?$allocator@D@2@@std@@@Z
??0ReorgYoloLayer@Builder@InferenceEngine@@QEAA@AEBV?$shared_ptr@$$CBVLayer@Builder@InferenceEngine@@@std@@@Z
??0ReorgYoloLayer@Builder@InferenceEngine@@QEAA@AEBV?$shared_ptr@VLayer@Builder@InferenceEngine@@@std@@@Z
??0ResampleLayer@Builder@InferenceEngine@@QEAA@$$QEAV012@@Z
??0ResampleLayer@Builder@InferenceEngine@@QEAA@AEBV012@@Z
??0ResampleLayer@Builder@InferenceEngine@@QEAA@AEBV?$basic_string@DU?$char_traits@D@std@@V?$allocator@D@2@@std@@@Z
??0ResampleLayer@Builder@InferenceEngine@@QEAA@AEBV?$shared_ptr@$$CBVLayer@Builder@InferenceEngine@@@std@@@Z
??0ResampleLayer@Builder@InferenceEngine@@QEAA@AEBV?$shared_ptr@VLayer@Builder@InferenceEngine@@@std@@@Z
??0ReshapeLayer@Builder@InferenceEngine@@QEAA@$$QEAV012@@Z
??0ReshapeLayer@Builder@InferenceEngine@@QEAA@AEBV012@@Z
??0ReshapeLayer@Builder@InferenceEngine@@QEAA@AEBV?$basic_string@DU?$char_traits@D@std@@V?$allocator@D@2@@std@@@Z
??0ReshapeLayer@Builder@InferenceEngine@@QEAA@AEBV?$shared_ptr@$$CBVLayer@Builder@InferenceEngine@@@std@@@Z
??0ReshapeLayer@Builder@InferenceEngine@@QEAA@AEBV?$shared_ptr@VLayer@Builder@InferenceEngine@@@std@@@Z
??0Reshaper@ShapeInfer@InferenceEngine@@QEAA@AEAVICNNNetwork@2@AEBV?$shared_ptr@VLauncherCreator@ShapeInfer@InferenceEngine@@@std@@@Z
??0Reshaper@ShapeInfer@InferenceEngine@@QEAA@AEBV012@@Z
??0Reshaper@ShapeInfer@InferenceEngine@@QEAA@PEAVNetwork@Builder@2@@Z
??0Reshaper@ShapeInfer@InferenceEngine@@QEAA@V?$vector@V?$shared_ptr@VData@InferenceEngine@@@std@@V?$allocator@V?$shared_ptr@VData@InferenceEngine@@@std@@@2@@std@@AEBV?$shared_ptr@VLauncherCreator@ShapeInfer@InferenceEngine@@@4@@Z
??0ScaleShiftLayer@Builder@InferenceEngine@@QEAA@$$QEAV012@@Z
??0ScaleShiftLayer@Builder@InferenceEngine@@QEAA@AEBV012@@Z
??0ScaleShiftLayer@Builder@InferenceEngine@@QEAA@AEBV?$basic_string@DU?$char_traits@D@std@@V?$allocator@D@2@@std@@@Z
??0ScaleShiftLayer@Builder@InferenceEngine@@QEAA@AEBV?$shared_ptr@$$CBVLayer@Builder@InferenceEngine@@@std@@@Z
??0ScaleShiftLayer@Builder@InferenceEngine@@QEAA@AEBV?$shared_ptr@VLayer@Builder@InferenceEngine@@@std@@@Z
??0SigmoidLayer@Builder@InferenceEngine@@QEAA@$$QEAV012@@Z
??0SigmoidLayer@Builder@InferenceEngine@@QEAA@AEBV012@@Z
??0SigmoidLayer@Builder@InferenceEngine@@QEAA@AEBV?$basic_string@DU?$char_traits@D@std@@V?$allocator@D@2@@std@@@Z
??0SigmoidLayer@Builder@InferenceEngine@@QEAA@AEBV?$shared_ptr@$$CBVLayer@Builder@InferenceEngine@@@std@@@Z
??0SigmoidLayer@Builder@InferenceEngine@@QEAA@AEBV?$shared_ptr@VLayer@Builder@InferenceEngine@@@std@@@Z
??0SimplerNMSLayer@Builder@InferenceEngine@@QEAA@$$QEAV012@@Z
??0SimplerNMSLayer@Builder@InferenceEngine@@QEAA@AEBV012@@Z
??0SimplerNMSLayer@Builder@InferenceEngine@@QEAA@AEBV?$basic_string@DU?$char_traits@D@std@@V?$allocator@D@2@@std@@@Z
??0SimplerNMSLayer@Builder@InferenceEngine@@QEAA@AEBV?$shared_ptr@$$CBVLayer@Builder@InferenceEngine@@@std@@@Z
??0SimplerNMSLayer@Builder@InferenceEngine@@QEAA@AEBV?$shared_ptr@VLayer@Builder@InferenceEngine@@@std@@@Z
??0SoftMaxLayer@Builder@InferenceEngine@@QEAA@$$QEAV012@@Z
??0SoftMaxLayer@Builder@InferenceEngine@@QEAA@AEBV012@@Z
??0SoftMaxLayer@Builder@InferenceEngine@@QEAA@AEBV?$basic_string@DU?$char_traits@D@std@@V?$allocator@D@2@@std@@@Z
??0SoftMaxLayer@Builder@InferenceEngine@@QEAA@AEBV?$shared_ptr@$$CBVLayer@Builder@InferenceEngine@@@std@@@Z
??0SoftMaxLayer@Builder@InferenceEngine@@QEAA@AEBV?$shared_ptr@VLayer@Builder@InferenceEngine@@@std@@@Z
??0SplitLayer@Builder@InferenceEngine@@QEAA@$$QEAV012@@Z
??0SplitLayer@Builder@InferenceEngine@@QEAA@AEBV012@@Z
??0SplitLayer@Builder@InferenceEngine@@QEAA@AEBV?$basic_string@DU?$char_traits@D@std@@V?$allocator@D@2@@std@@@Z
??0SplitLayer@Builder@InferenceEngine@@QEAA@AEBV?$shared_ptr@$$CBVLayer@Builder@InferenceEngine@@@std@@@Z
??0SplitLayer@Builder@InferenceEngine@@QEAA@AEBV?$shared_ptr@VLayer@Builder@InferenceEngine@@@std@@@Z
??0StagedTask@InferenceEngine@@QEAA@AEBV?$function@$$A6AXXZ@std@@_K@Z
??0StagedTask@InferenceEngine@@QEAA@XZ
??0TanHLayer@Builder@InferenceEngine@@QEAA@$$QEAV012@@Z
??0TanHLayer@Builder@InferenceEngine@@QEAA@AEBV012@@Z
??0TanHLayer@Builder@InferenceEngine@@QEAA@AEBV?$basic_string@DU?$char_traits@D@std@@V?$allocator@D@2@@std@@@Z
??0TanHLayer@Builder@InferenceEngine@@QEAA@AEBV?$shared_ptr@$$CBVLayer@Builder@InferenceEngine@@@std@@@Z
??0TanHLayer@Builder@InferenceEngine@@QEAA@AEBV?$shared_ptr@VLayer@Builder@InferenceEngine@@@std@@@Z
??0Task@InferenceEngine@@QEAA@AEBV?$function@$$A6AXXZ@std@@@Z
??0Task@InferenceEngine@@QEAA@XZ
??0TaskExecutor@InferenceEngine@@QEAA@V?$basic_string@DU?$char_traits@D@std@@V?$allocator@D@2@@std@@@Z
??0TensorDesc@InferenceEngine@@QEAA@AEBV01@@Z
??0TensorDesc@InferenceEngine@@QEAA@AEBVPrecision@1@V?$vector@_KV?$allocator@_K@std@@@std@@AEBVBlockingDesc@1@@Z
??0TensorDesc@InferenceEngine@@QEAA@AEBVPrecision@1@V?$vector@_KV?$allocator@_K@std@@@std@@W4Layout@1@@Z
??0TensorDesc@InferenceEngine@@QEAA@AEBVPrecision@1@W4Layout@1@@Z
??0TensorDesc@InferenceEngine@@QEAA@XZ
??0TileLayer@Builder@InferenceEngine@@QEAA@$$QEAV012@@Z
??0TileLayer@Builder@InferenceEngine@@QEAA@AEBV012@@Z
??0TileLayer@Builder@InferenceEngine@@QEAA@AEBV?$basic_string@DU?$char_traits@D@std@@V?$allocator@D@2@@std@@@Z
??0TileLayer@Builder@InferenceEngine@@QEAA@AEBV?$shared_ptr@$$CBVLayer@Builder@InferenceEngine@@@std@@@Z
??0TileLayer@Builder@InferenceEngine@@QEAA@AEBV?$shared_ptr@VLayer@Builder@InferenceEngine@@@std@@@Z
??1?$enable_shared_from_this@VLayer@Builder@InferenceEngine@@@std@@IEAA@XZ
??1ArgMaxLayer@Builder@InferenceEngine@@UEAA@XZ
??1BatchNormalizationLayer@Builder@InferenceEngine@@UEAA@XZ
??1BlockingDesc@InferenceEngine@@UEAA@XZ
??1BuiltInShapeInferHolder@ShapeInfer@InferenceEngine@@UEAA@XZ
??1CNNNetworkImpl@details@InferenceEngine@@UEAA@XZ
??1CNNNetworkStatsImpl@details@InferenceEngine@@UEAA@XZ
??1CTCGreedyDecoderLayer@Builder@InferenceEngine@@UEAA@XZ
??1ClampLayer@Builder@InferenceEngine@@UEAA@XZ
??1CompoundBlob@InferenceEngine@@UEAA@XZ
??1ConcatLayer@Builder@InferenceEngine@@UEAA@XZ
??1ConstLayer@Builder@InferenceEngine@@UEAA@XZ
??1ConstTransformer@InferenceEngine@@UEAA@XZ
??1Context@InferenceEngine@@QEAA@XZ
??1ConvolutionLayer@Builder@InferenceEngine@@UEAA@XZ
??1Core@InferenceEngine@@QEAA@XZ
??1CropLayer@Builder@InferenceEngine@@UEAA@XZ
??1Data@InferenceEngine@@QEAA@XZ
??1DeconvolutionLayer@Builder@InferenceEngine@@UEAA@XZ
??1DeformableConvolutionLayer@Builder@InferenceEngine@@UEAA@XZ
??1DetectionOutputLayer@Builder@InferenceEngine@@UEAA@XZ
??1DeviceIDParser@InferenceEngine@@QEAA@XZ
??1ELULayer@Builder@InferenceEngine@@UEAA@XZ
??1EltwiseLayer@Builder@InferenceEngine@@UEAA@XZ
??1ExecutorManager@InferenceEngine@@QEAA@XZ
??1FormatParser@details@InferenceEngine@@UEAA@XZ
??1FullyConnectedLayer@Builder@InferenceEngine@@UEAA@XZ
??1GRNLayer@Builder@InferenceEngine@@UEAA@XZ
??1GRUSequenceLayer@Builder@InferenceEngine@@UEAA@XZ
??1IHeteroDeviceLoader@InferenceEngine@@UEAA@XZ
??1IHeteroInferencePlugin@InferenceEngine@@UEAA@XZ
??1ITaskExecutor@InferenceEngine@@UEAA@XZ
??1InputLayer@Builder@InferenceEngine@@UEAA@XZ
??1LRNLayer@Builder@InferenceEngine@@UEAA@XZ
??1LSTMSequenceLayer@Builder@InferenceEngine@@UEAA@XZ
??1LauncherCreator@ShapeInfer@InferenceEngine@@UEAA@XZ
??1Layer@Builder@InferenceEngine@@UEAA@XZ
??1LayerDecorator@Builder@InferenceEngine@@UEAA@XZ
??1LayoutOffsetCounter@InferenceEngine@@QEAA@XZ
??1MVNLayer@Builder@InferenceEngine@@UEAA@XZ
??1MemoryLayer@Builder@InferenceEngine@@UEAA@XZ
??1NV12Blob@InferenceEngine@@UEAA@XZ
??1Network@Builder@InferenceEngine@@UEAA@XZ
??1NormLayer@Builder@InferenceEngine@@UEAA@XZ
??1NormalizeLayer@Builder@InferenceEngine@@UEAA@XZ
??1OutputLayer@Builder@InferenceEngine@@UEAA@XZ
??1PReLULayer@Builder@InferenceEngine@@UEAA@XZ
??1PSROIPoolingLayer@Builder@InferenceEngine@@UEAA@XZ
??1PermuteLayer@Builder@InferenceEngine@@UEAA@XZ
??1PluginDispatcher@InferenceEngine@@QEAA@XZ
??1PoolingLayer@Builder@InferenceEngine@@UEAA@XZ
??1Port@InferenceEngine@@UEAA@XZ
??1PortData@InferenceEngine@@UEAA@XZ
??1PowerLayer@Builder@InferenceEngine@@UEAA@XZ
??1PreProcessData@InferenceEngine@@QEAA@XZ
??1PriorBoxClusteredLayer@Builder@InferenceEngine@@UEAA@XZ
??1PriorBoxLayer@Builder@InferenceEngine@@UEAA@XZ
??1ProposalLayer@Builder@InferenceEngine@@UEAA@XZ
??1QueryNetworkResult@InferenceEngine@@QEAA@XZ
??1RNNSequenceLayer@Builder@InferenceEngine@@UEAA@XZ
??1ROIPoolingLayer@Builder@InferenceEngine@@UEAA@XZ
??1ReLU6Layer@Builder@InferenceEngine@@UEAA@XZ
??1ReLULayer@Builder@InferenceEngine@@UEAA@XZ
??1RegionYoloLayer@Builder@InferenceEngine@@UEAA@XZ
??1ReorgYoloLayer@Builder@InferenceEngine@@UEAA@XZ
??1ResampleLayer@Builder@InferenceEngine@@UEAA@XZ
??1ReshapeLayer@Builder@InferenceEngine@@UEAA@XZ
??1Reshaper@ShapeInfer@InferenceEngine@@UEAA@XZ
??1ScaleShiftLayer@Builder@InferenceEngine@@UEAA@XZ
??1SigmoidLayer@Builder@InferenceEngine@@UEAA@XZ
??1SimplerNMSLayer@Builder@InferenceEngine@@UEAA@XZ
??1SoftMaxLayer@Builder@InferenceEngine@@UEAA@XZ
??1SplitLayer@Builder@InferenceEngine@@UEAA@XZ
??1StagedTask@InferenceEngine@@UEAA@XZ
??1TanHLayer@Builder@InferenceEngine@@UEAA@XZ
??1Task@InferenceEngine@@UEAA@XZ
??1TaskExecutor@InferenceEngine@@UEAA@XZ
??1TensorDesc@InferenceEngine@@UEAA@XZ
??1TileLayer@Builder@InferenceEngine@@UEAA@XZ
??4?$enable_shared_from_this@VLayer@Builder@InferenceEngine@@@std@@IEAAAEAV01@AEBV01@@Z
??4ArgMaxLayer@Builder@InferenceEngine@@QEAAAEAV012@$$QEAV012@@Z
??4ArgMaxLayer@Builder@InferenceEngine@@QEAAAEAV012@AEBV012@@Z
??4BatchNormalizationLayer@Builder@InferenceEngine@@QEAAAEAV012@$$QEAV012@@Z
??4BatchNormalizationLayer@Builder@InferenceEngine@@QEAAAEAV012@AEBV012@@Z
??4BlockingDesc@InferenceEngine@@QEAAAEAV01@AEBV01@@Z
??4CNNNetworkInt8Normalizer@details@InferenceEngine@@QEAAAEAV012@$$QEAV012@@Z
??4CNNNetworkInt8Normalizer@details@InferenceEngine@@QEAAAEAV012@AEBV012@@Z
??4CTCGreedyDecoderLayer@Builder@InferenceEngine@@QEAAAEAV012@$$QEAV012@@Z
??4CTCGreedyDecoderLayer@Builder@InferenceEngine@@QEAAAEAV012@AEBV012@@Z
??4ClampLayer@Builder@InferenceEngine@@QEAAAEAV012@$$QEAV012@@Z
??4ClampLayer@Builder@InferenceEngine@@QEAAAEAV012@AEBV012@@Z
??4CompoundBlob@InferenceEngine@@QEAAAEAV01@$$QEAV01@@Z
??4CompoundBlob@InferenceEngine@@QEAAAEAV01@AEBV01@@Z
??4ConcatLayer@Builder@InferenceEngine@@QEAAAEAV012@$$QEAV012@@Z
??4ConcatLayer@Builder@InferenceEngine@@QEAAAEAV012@AEBV012@@Z
??4ConstInferHolder@ShapeInfer@InferenceEngine@@QEAAAEAV012@$$QEAV012@@Z
??4ConstInferHolder@ShapeInfer@InferenceEngine@@QEAAAEAV012@AEBV012@@Z
??4ConstLayer@Builder@InferenceEngine@@QEAAAEAV012@$$QEAV012@@Z
??4ConstLayer@Builder@InferenceEngine@@QEAAAEAV012@AEBV012@@Z
??4Context@InferenceEngine@@QEAAAEAV01@$$QEAV01@@Z
??4Context@InferenceEngine@@QEAAAEAV01@AEBV01@@Z
??4ConvolutionLayer@Builder@InferenceEngine@@QEAAAEAV012@$$QEAV012@@Z
??4ConvolutionLayer@Builder@InferenceEngine@@QEAAAEAV012@AEBV012@@Z
??4Core@InferenceEngine@@QEAAAEAV01@$$QEAV01@@Z
??4Core@InferenceEngine@@QEAAAEAV01@AEBV01@@Z
??4CropLayer@Builder@InferenceEngine@@QEAAAEAV012@$$QEAV012@@Z
??4CropLayer@Builder@InferenceEngine@@QEAAAEAV012@AEBV012@@Z
??4Data@InferenceEngine@@QEAAAEAV01@AEBV01@@Z
??4DataStats@@QEAAAEAV0@$$QEAV0@@Z
??4DataStats@@QEAAAEAV0@AEBV0@@Z
??4DeconvolutionLayer@Builder@InferenceEngine@@QEAAAEAV012@$$QEAV012@@Z
??4DeconvolutionLayer@Builder@InferenceEngine@@QEAAAEAV012@AEBV012@@Z
??4DeformableConvolutionLayer@Builder@InferenceEngine@@QEAAAEAV012@$$QEAV012@@Z
??4DeformableConvolutionLayer@Builder@InferenceEngine@@QEAAAEAV012@AEBV012@@Z
??4DetectionOutputLayer@Builder@InferenceEngine@@QEAAAEAV012@$$QEAV012@@Z
??4DetectionOutputLayer@Builder@InferenceEngine@@QEAAAEAV012@AEBV012@@Z
??4DeviceIDParser@InferenceEngine@@QEAAAEAV01@$$QEAV01@@Z
??4DeviceIDParser@InferenceEngine@@QEAAAEAV01@AEBV01@@Z
??4ELULayer@Builder@InferenceEngine@@QEAAAEAV012@$$QEAV012@@Z
??4ELULayer@Builder@InferenceEngine@@QEAAAEAV012@AEBV012@@Z
??4EltwiseLayer@Builder@InferenceEngine@@QEAAAEAV012@$$QEAV012@@Z
??4EltwiseLayer@Builder@InferenceEngine@@QEAAAEAV012@AEBV012@@Z
??4FormatParser@details@InferenceEngine@@QEAAAEAV012@$$QEAV012@@Z
??4FormatParser@details@InferenceEngine@@QEAAAEAV012@AEBV012@@Z
??4FullyConnectedLayer@Builder@InferenceEngine@@QEAAAEAV012@$$QEAV012@@Z
??4FullyConnectedLayer@Builder@InferenceEngine@@QEAAAEAV012@AEBV012@@Z
??4GRNLayer@Builder@InferenceEngine@@QEAAAEAV012@$$QEAV012@@Z
??4GRNLayer@Builder@InferenceEngine@@QEAAAEAV012@AEBV012@@Z
??4GRUSequenceLayer@Builder@InferenceEngine@@QEAAAEAV012@$$QEAV012@@Z
??4GRUSequenceLayer@Builder@InferenceEngine@@QEAAAEAV012@AEBV012@@Z
??4IHeteroDeviceLoader@InferenceEngine@@QEAAAEAV01@AEBV01@@Z
??4IRReader@InferenceEngine@@QEAAAEAV01@$$QEAV01@@Z
??4IRReader@InferenceEngine@@QEAAAEAV01@AEBV01@@Z
??4ITaskExecutor@InferenceEngine@@QEAAAEAV01@AEBV01@@Z
??4InputLayer@Builder@InferenceEngine@@QEAAAEAV012@$$QEAV012@@Z
??4InputLayer@Builder@InferenceEngine@@QEAAAEAV012@AEBV012@@Z
??4LRNLayer@Builder@InferenceEngine@@QEAAAEAV012@$$QEAV012@@Z
??4LRNLayer@Builder@InferenceEngine@@QEAAAEAV012@AEBV012@@Z
??4LSTMSequenceLayer@Builder@InferenceEngine@@QEAAAEAV012@$$QEAV012@@Z
??4LSTMSequenceLayer@Builder@InferenceEngine@@QEAAAEAV012@AEBV012@@Z
??4LauncherCreator@ShapeInfer@InferenceEngine@@QEAAAEAV012@AEBV012@@Z
??4Layer@Builder@InferenceEngine@@QEAAAEAV012@$$QEAV012@@Z
??4Layer@Builder@InferenceEngine@@QEAAAEAV012@AEBV012@@Z
??4LayerDecorator@Builder@InferenceEngine@@QEAAAEAV012@AEBV012@@Z
??4LayoutOffsetCounter@InferenceEngine@@QEAAAEAV01@AEBV01@@Z
??4MVNLayer@Builder@InferenceEngine@@QEAAAEAV012@$$QEAV012@@Z
??4MVNLayer@Builder@InferenceEngine@@QEAAAEAV012@AEBV012@@Z
??4MemoryLayer@Builder@InferenceEngine@@QEAAAEAV012@$$QEAV012@@Z
??4MemoryLayer@Builder@InferenceEngine@@QEAAAEAV012@AEBV012@@Z
??4NV12Blob@InferenceEngine@@QEAAAEAV01@$$QEAV01@@Z
??4NV12Blob@InferenceEngine@@QEAAAEAV01@AEBV01@@Z
??4Network@Builder@InferenceEngine@@QEAAAEAV012@$$QEAV012@@Z
??4Network@Builder@InferenceEngine@@QEAAAEAV012@AEBV012@@Z
??4NormLayer@Builder@InferenceEngine@@QEAAAEAV012@$$QEAV012@@Z
??4NormLayer@Builder@InferenceEngine@@QEAAAEAV012@AEBV012@@Z
??4NormalizeLayer@Builder@InferenceEngine@@QEAAAEAV012@$$QEAV012@@Z
??4NormalizeLayer@Builder@InferenceEngine@@QEAAAEAV012@AEBV012@@Z
??4OutputLayer@Builder@InferenceEngine@@QEAAAEAV012@$$QEAV012@@Z
??4OutputLayer@Builder@InferenceEngine@@QEAAAEAV012@AEBV012@@Z
??4PReLULayer@Builder@InferenceEngine@@QEAAAEAV012@$$QEAV012@@Z
??4PReLULayer@Builder@InferenceEngine@@QEAAAEAV012@AEBV012@@Z
??4PSROIPoolingLayer@Builder@InferenceEngine@@QEAAAEAV012@$$QEAV012@@Z
??4PSROIPoolingLayer@Builder@InferenceEngine@@QEAAAEAV012@AEBV012@@Z
??4Paddings@InferenceEngine@@QEAAAEAV01@$$QEAV01@@Z
??4Paddings@InferenceEngine@@QEAAAEAV01@AEBV01@@Z
??4PermuteLayer@Builder@InferenceEngine@@QEAAAEAV012@$$QEAV012@@Z
??4PermuteLayer@Builder@InferenceEngine@@QEAAAEAV012@AEBV012@@Z
??4PluginDispatcher@InferenceEngine@@QEAAAEAV01@$$QEAV01@@Z
??4PluginDispatcher@InferenceEngine@@QEAAAEAV01@AEBV01@@Z
??4PoolingLayer@Builder@InferenceEngine@@QEAAAEAV012@$$QEAV012@@Z
??4PoolingLayer@Builder@InferenceEngine@@QEAAAEAV012@AEBV012@@Z
??4Port@InferenceEngine@@QEAAAEAV01@AEBV01@@Z
??4PortData@InferenceEngine@@QEAAAEAV01@AEBV01@@Z
??4PowerLayer@Builder@InferenceEngine@@QEAAAEAV012@$$QEAV012@@Z
??4PowerLayer@Builder@InferenceEngine@@QEAAAEAV012@AEBV012@@Z
??4PreProcessData@InferenceEngine@@QEAAAEAV01@$$QEAV01@@Z
??4PreProcessData@InferenceEngine@@QEAAAEAV01@AEBV01@@Z
??4PriorBoxClusteredLayer@Builder@InferenceEngine@@QEAAAEAV012@$$QEAV012@@Z
??4PriorBoxClusteredLayer@Builder@InferenceEngine@@QEAAAEAV012@AEBV012@@Z
??4PriorBoxLayer@Builder@InferenceEngine@@QEAAAEAV012@$$QEAV012@@Z
??4PriorBoxLayer@Builder@InferenceEngine@@QEAAAEAV012@AEBV012@@Z
??4ProposalLayer@Builder@InferenceEngine@@QEAAAEAV012@$$QEAV012@@Z
??4ProposalLayer@Builder@InferenceEngine@@QEAAAEAV012@AEBV012@@Z
??4QueryNetworkResult@InferenceEngine@@QEAAAEAU01@$$QEAU01@@Z
??4QueryNetworkResult@InferenceEngine@@QEAAAEBU01@AEBU01@@Z
??4RNNSequenceLayer@Builder@InferenceEngine@@QEAAAEAV012@$$QEAV012@@Z
??4RNNSequenceLayer@Builder@InferenceEngine@@QEAAAEAV012@AEBV012@@Z
??4ROIPoolingLayer@Builder@InferenceEngine@@QEAAAEAV012@$$QEAV012@@Z
??4ROIPoolingLayer@Builder@InferenceEngine@@QEAAAEAV012@AEBV012@@Z
??4ReLU6Layer@Builder@InferenceEngine@@QEAAAEAV012@$$QEAV012@@Z
??4ReLU6Layer@Builder@InferenceEngine@@QEAAAEAV012@AEBV012@@Z
??4ReLULayer@Builder@InferenceEngine@@QEAAAEAV012@$$QEAV012@@Z
??4ReLULayer@Builder@InferenceEngine@@QEAAAEAV012@AEBV012@@Z
??4RegionYoloLayer@Builder@InferenceEngine@@QEAAAEAV012@$$QEAV012@@Z
??4RegionYoloLayer@Builder@InferenceEngine@@QEAAAEAV012@AEBV012@@Z
??4ReorgYoloLayer@Builder@InferenceEngine@@QEAAAEAV012@$$QEAV012@@Z
??4ReorgYoloLayer@Builder@InferenceEngine@@QEAAAEAV012@AEBV012@@Z
??4ResampleLayer@Builder@InferenceEngine@@QEAAAEAV012@$$QEAV012@@Z
??4ResampleLayer@Builder@InferenceEngine@@QEAAAEAV012@AEBV012@@Z
??4ReshapeLayer@Builder@InferenceEngine@@QEAAAEAV012@$$QEAV012@@Z
??4ReshapeLayer@Builder@InferenceEngine@@QEAAAEAV012@AEBV012@@Z
??4Reshaper@ShapeInfer@InferenceEngine@@QEAAAEAV012@AEBV012@@Z
??4ScaleShiftLayer@Builder@InferenceEngine@@QEAAAEAV012@$$QEAV012@@Z
??4ScaleShiftLayer@Builder@InferenceEngine@@QEAAAEAV012@AEBV012@@Z
??4SigmoidLayer@Builder@InferenceEngine@@QEAAAEAV012@$$QEAV012@@Z
??4SigmoidLayer@Builder@InferenceEngine@@QEAAAEAV012@AEBV012@@Z
??4SimplerNMSLayer@Builder@InferenceEngine@@QEAAAEAV012@$$QEAV012@@Z
??4SimplerNMSLayer@Builder@InferenceEngine@@QEAAAEAV012@AEBV012@@Z
??4SoftMaxLayer@Builder@InferenceEngine@@QEAAAEAV012@$$QEAV012@@Z
??4SoftMaxLayer@Builder@InferenceEngine@@QEAAAEAV012@AEBV012@@Z
??4SplitLayer@Builder@InferenceEngine@@QEAAAEAV012@$$QEAV012@@Z
??4SplitLayer@Builder@InferenceEngine@@QEAAAEAV012@AEBV012@@Z
??4TanHLayer@Builder@InferenceEngine@@QEAAAEAV012@$$QEAV012@@Z
??4TanHLayer@Builder@InferenceEngine@@QEAAAEAV012@AEBV012@@Z
??4TensorDesc@InferenceEngine@@QEAAAEAV01@AEBV01@@Z
??4TileLayer@Builder@InferenceEngine@@QEAAAEAV012@$$QEAV012@@Z
??4TileLayer@Builder@InferenceEngine@@QEAAAEAV012@AEBV012@@Z
??8BlockingDesc@InferenceEngine@@QEBA_NAEBV01@@Z
??8Layer@Builder@InferenceEngine@@QEBA_NAEBV012@@Z
??8Port@InferenceEngine@@QEBA_NAEBV01@@Z
??8TensorDesc@InferenceEngine@@QEBA_NAEBV01@@Z
??9BlockingDesc@InferenceEngine@@QEBA_NAEBV01@@Z
??9Port@InferenceEngine@@QEBA_NAEBV01@@Z
??9TensorDesc@InferenceEngine@@QEBA_NAEBV01@@Z
??BLayerDecorator@Builder@InferenceEngine@@UEAA?AV?$shared_ptr@VLayer@Builder@InferenceEngine@@@std@@XZ
??BLayerDecorator@Builder@InferenceEngine@@UEBA?AV?$shared_ptr@$$CBVLayer@Builder@InferenceEngine@@@std@@XZ
??BLayerDecorator@Builder@InferenceEngine@@UEBA?AVLayer@12@XZ
??BNetwork@Builder@InferenceEngine@@QEAA?BV?$shared_ptr@$$CBVINetwork@InferenceEngine@@@std@@XZ
??BPoolingLayer@Builder@InferenceEngine@@UEBA?AVLayer@12@XZ
??_FArgMaxLayer@Builder@InferenceEngine@@QEAAXXZ
??_FBatchNormalizationLayer@Builder@InferenceEngine@@QEAAXXZ
??_FCTCGreedyDecoderLayer@Builder@InferenceEngine@@QEAAXXZ
??_FClampLayer@Builder@InferenceEngine@@QEAAXXZ
??_FConcatLayer@Builder@InferenceEngine@@QEAAXXZ
??_FConstLayer@Builder@InferenceEngine@@QEAAXXZ
??_FConvolutionLayer@Builder@InferenceEngine@@QEAAXXZ
??_FCore@InferenceEngine@@QEAAXXZ
??_FCropLayer@Builder@InferenceEngine@@QEAAXXZ
??_FDeconvolutionLayer@Builder@InferenceEngine@@QEAAXXZ
??_FDeformableConvolutionLayer@Builder@InferenceEngine@@QEAAXXZ
??_FDetectionOutputLayer@Builder@InferenceEngine@@QEAAXXZ
??_FELULayer@Builder@InferenceEngine@@QEAAXXZ
??_FEltwiseLayer@Builder@InferenceEngine@@QEAAXXZ
??_FFullyConnectedLayer@Builder@InferenceEngine@@QEAAXXZ
??_FGRNLayer@Builder@InferenceEngine@@QEAAXXZ
??_FGRUSequenceLayer@Builder@InferenceEngine@@QEAAXXZ
??_FInputLayer@Builder@InferenceEngine@@QEAAXXZ
??_FLRNLayer@Builder@InferenceEngine@@QEAAXXZ
??_FLSTMSequenceLayer@Builder@InferenceEngine@@QEAAXXZ
??_FMVNLayer@Builder@InferenceEngine@@QEAAXXZ
??_FMemoryLayer@Builder@InferenceEngine@@QEAAXXZ
??_FNormLayer@Builder@InferenceEngine@@QEAAXXZ
??_FNormalizeLayer@Builder@InferenceEngine@@QEAAXXZ
??_FOutputLayer@Builder@InferenceEngine@@QEAAXXZ
??_FPReLULayer@Builder@InferenceEngine@@QEAAXXZ
??_FPSROIPoolingLayer@Builder@InferenceEngine@@QEAAXXZ
??_FPermuteLayer@Builder@InferenceEngine@@QEAAXXZ
??_FPluginDispatcher@InferenceEngine@@QEAAXXZ
??_FPoolingLayer@Builder@InferenceEngine@@QEAAXXZ
??_FPowerLayer@Builder@InferenceEngine@@QEAAXXZ
??_FPriorBoxClusteredLayer@Builder@InferenceEngine@@QEAAXXZ
??_FPriorBoxLayer@Builder@InferenceEngine@@QEAAXXZ
??_FProposalLayer@Builder@InferenceEngine@@QEAAXXZ
??_FRNNSequenceLayer@Builder@InferenceEngine@@QEAAXXZ
??_FROIPoolingLayer@Builder@InferenceEngine@@QEAAXXZ
??_FReLU6Layer@Builder@InferenceEngine@@QEAAXXZ
??_FReLULayer@Builder@InferenceEngine@@QEAAXXZ
??_FRegionYoloLayer@Builder@InferenceEngine@@QEAAXXZ
??_FReorgYoloLayer@Builder@InferenceEngine@@QEAAXXZ
??_FResampleLayer@Builder@InferenceEngine@@QEAAXXZ
??_FReshapeLayer@Builder@InferenceEngine@@QEAAXXZ
??_FScaleShiftLayer@Builder@InferenceEngine@@QEAAXXZ
??_FSigmoidLayer@Builder@InferenceEngine@@QEAAXXZ
??_FSimplerNMSLayer@Builder@InferenceEngine@@QEAAXXZ
??_FSoftMaxLayer@Builder@InferenceEngine@@QEAAXXZ
??_FSplitLayer@Builder@InferenceEngine@@QEAAXXZ
??_FTanHLayer@Builder@InferenceEngine@@QEAAXXZ
??_FTaskExecutor@InferenceEngine@@QEAAXXZ
??_FTileLayer@Builder@InferenceEngine@@QEAAXXZ
?AddExtension@CNNNetworkImpl@details@InferenceEngine@@UEAA?AW4StatusCode@3@AEBV?$shared_ptr@VIShapeInferExtension@InferenceEngine@@@std@@PEAUResponseDesc@3@@Z
?AddExtension@Core@InferenceEngine@@QEAAXV?$shared_ptr@VIExtension@InferenceEngine@@@std@@AEBV?$basic_string@DU?$char_traits@D@std@@V?$allocator@D@2@@4@@Z
?AddExtension@Reshaper@ShapeInfer@InferenceEngine@@QEAAXAEBV?$shared_ptr@VIShapeInferExtension@InferenceEngine@@@std@@@Z
?AddImpl@BuiltInShapeInferHolder@ShapeInfer@InferenceEngine@@SAXAEBV?$basic_string@DU?$char_traits@D@std@@V?$allocator@D@2@@std@@AEBV?$shared_ptr@VIShapeInferImpl@InferenceEngine@@@5@@Z
?AddImpl@ConstInferHolder@ShapeInfer@InferenceEngine@@SAXAEBV?$basic_string@DU?$char_traits@D@std@@V?$allocator@D@2@@std@@AEBV?$shared_ptr@VIConstInferImpl@ShapeInfer@InferenceEngine@@@5@@Z
?AddLayerToCNNNetworkAfterData@CNNNetworkInt8Normalizer@details@InferenceEngine@@KAXV?$shared_ptr@VData@InferenceEngine@@@std@@V?$shared_ptr@VCNNLayer@InferenceEngine@@@5@AEBV?$basic_string@DU?$char_traits@D@std@@V?$allocator@D@2@@5@@Z
?AddLayerToCNNNetworkBeforeLayer@CNNNetworkInt8Normalizer@details@InferenceEngine@@KAXV?$shared_ptr@VCNNLayer@InferenceEngine@@@std@@0_K@Z
?AddScaleShiftBetween@CNNNetworkInt8Normalizer@details@InferenceEngine@@KAXAEAVCNNNetwork@3@V?$shared_ptr@VCNNLayer@InferenceEngine@@@std@@1AEAVCNNStatisticHelper@23@@Z
?AddScaleShifts@CNNNetworkInt8Normalizer@details@InferenceEngine@@KAXAEAVCNNNetwork@3@AEAVCNNStatisticHelper@23@@Z
?CNNNetSortTopologically@details@InferenceEngine@@YA?AV?$vector@V?$shared_ptr@VCNNLayer@InferenceEngine@@@std@@V?$allocator@V?$shared_ptr@VCNNLayer@InferenceEngine@@@std@@@2@@std@@AEBVICNNNetwork@2@@Z
?ClampsToReLU@CNNNetworkInt8Normalizer@details@InferenceEngine@@KAXAEAVCNNNetwork@3@AEAVCNNStatisticHelper@23@@Z
?CombineRNNSeq@NetPass@InferenceEngine@@YA_NAEAUBody@TensorIterator@2@@Z
?CombineRNNSeq@NetPass@InferenceEngine@@YA_NAEAVICNNNetwork@2@@Z
?CopyTIBody@NetPass@InferenceEngine@@YA?AUBody@TensorIterator@2@AEBU342@V?$basic_string@DU?$char_traits@D@std@@V?$allocator@D@2@@std@@@Z
?CreateBlobFromData@@YA?AV?$shared_ptr@VBlob@InferenceEngine@@@std@@AEBV?$shared_ptr@VData@InferenceEngine@@@2@@Z
?CreateLayer@FormatParser@details@InferenceEngine@@AEBA?AV?$shared_ptr@VCNNLayer@InferenceEngine@@@std@@AEAVxml_node@pugi@@AEAULayerParseParameters@23@@Z
?DefinesExecutionPrecision@CNNNetworkInt8Normalizer@details@InferenceEngine@@KAXAEAVCNNNetwork@3@AEAVCNNStatisticHelper@23@@Z
?GetAvailableDevices@Core@InferenceEngine@@QEBA?AV?$vector@V?$basic_string@DU?$char_traits@D@std@@V?$allocator@D@2@@std@@V?$allocator@V?$basic_string@DU?$char_traits@D@std@@V?$allocator@D@2@@std@@@2@@std@@XZ
?GetBlobFromSegment@FormatParser@details@InferenceEngine@@QEBA?AV?$shared_ptr@VBlob@InferenceEngine@@@std@@AEBV?$shared_ptr@V?$TBlob@EU?$enable_if@$00X@std@@@InferenceEngine@@@5@AEBUWeightSegment@23@@Z
?GetConfig@Core@InferenceEngine@@QEBA?AVParameter@2@AEBV?$basic_string@DU?$char_traits@D@std@@V?$allocator@D@2@@std@@0@Z
?GetDataBy@FormatParser@details@InferenceEngine@@QEBAAEBV?$shared_ptr@VData@InferenceEngine@@@std@@HH@Z
?GetFloatAttr@XMLParseUtils@@YAMAEBVxml_node@pugi@@PEBD@Z
?GetFloatAttr@XMLParseUtils@@YAMAEBVxml_node@pugi@@PEBDM@Z
?GetImplsHolder@BuiltInShapeInferHolder@ShapeInfer@InferenceEngine@@CA?AV?$shared_ptr@UImplsHolder@BuiltInShapeInferHolder@ShapeInfer@InferenceEngine@@@std@@XZ
?GetImplsHolder@ConstInferHolder@ShapeInfer@InferenceEngine@@CA?AV?$shared_ptr@UImplsHolder@ConstInferHolder@ShapeInfer@InferenceEngine@@@std@@XZ
?GetIntAttr@XMLParseUtils@@YAHAEBVxml_node@pugi@@PEBD@Z
?GetIntAttr@XMLParseUtils@@YAHAEBVxml_node@pugi@@PEBDH@Z
?GetIntChild@XMLParseUtils@@YAHAEBVxml_node@pugi@@PEBDH@Z
?GetMetric@Core@InferenceEngine@@QEBA?AVParameter@2@AEBV?$basic_string@DU?$char_traits@D@std@@V?$allocator@D@2@@std@@0@Z
?GetPrecisionAttr@XMLParseUtils@@YA?AVPrecision@InferenceEngine@@AEBVxml_node@pugi@@PEBD@Z
?GetPrecisionAttr@XMLParseUtils@@YA?AVPrecision@InferenceEngine@@AEBVxml_node@pugi@@PEBDV23@@Z
?GetStrAttr@XMLParseUtils@@YA?AV?$basic_string@DU?$char_traits@D@std@@V?$allocator@D@2@@std@@AEBVxml_node@pugi@@PEBD1@Z
?GetStrAttr@XMLParseUtils@@YA?AV?$basic_string@DU?$char_traits@D@std@@V?$allocator@D@2@@std@@AEBVxml_node@pugi@@PEBD@Z
?GetUInt64Attr@XMLParseUtils@@YA_KAEBVxml_node@pugi@@PEBD@Z
?GetUInt64Attr@XMLParseUtils@@YA_KAEBVxml_node@pugi@@PEBD_K@Z
?GetUIntAttr@XMLParseUtils@@YAIAEBVxml_node@pugi@@PEBD@Z
?GetUIntAttr@XMLParseUtils@@YAIAEBVxml_node@pugi@@PEBDI@Z
?GetVersion@BuiltInShapeInferHolder@ShapeInfer@InferenceEngine@@UEBAXAEAPEBUVersion@3@@Z
?GetVersions@Core@InferenceEngine@@QEBA?AV?$map@V?$basic_string@DU?$char_traits@D@std@@V?$allocator@D@2@@std@@UVersion@InferenceEngine@@U?$less@V?$basic_string@DU?$char_traits@D@std@@V?$allocator@D@2@@std@@@2@V?$allocator@U?$pair@$$CBV?$basic_string@DU?$char_traits@D@std@@V?$allocator@D@2@@std@@UVersion@InferenceEngine@@@std@@@2@@std@@AEBV?$basic_string@DU?$char_traits@D@std@@V?$allocator@D@2@@4@@Z
?ImportNetwork@Core@InferenceEngine@@QEAA?AVExecutableNetwork@2@AEBV?$basic_string@DU?$char_traits@D@std@@V?$allocator@D@2@@std@@0AEBV?$map@V?$basic_string@DU?$char_traits@D@std@@V?$allocator@D@2@@std@@V12@U?$less@V?$basic_string@DU?$char_traits@D@std@@V?$allocator@D@2@@std@@@2@V?$allocator@U?$pair@$$CBV?$basic_string@DU?$char_traits@D@std@@V?$allocator@D@2@@std@@V12@@std@@@2@@5@@Z
?LoadNetwork@Core@InferenceEngine@@QEAA?AVExecutableNetwork@2@VCNNNetwork@2@AEBV?$basic_string@DU?$char_traits@D@std@@V?$allocator@D@2@@std@@AEBV?$map@V?$basic_string@DU?$char_traits@D@std@@V?$allocator@D@2@@std@@V12@U?$less@V?$basic_string@DU?$char_traits@D@std@@V?$allocator@D@2@@std@@@2@V?$allocator@U?$pair@$$CBV?$basic_string@DU?$char_traits@D@std@@V?$allocator@D@2@@std@@V12@@std@@@2@@6@@Z
?NormalizeNetwork@CNNNetworkInt8Normalizer@details@InferenceEngine@@SAXAEAVICNNNetwork@3@AEAVICNNNetworkStats@3@@Z
?Offset@LayoutOffsetCounter@InferenceEngine@@QEAA_KV?$vector@_KV?$allocator@_K@std@@@std@@@Z
?Parse@FormatParser@details@InferenceEngine@@UEAA?AV?$shared_ptr@VCNNNetworkImpl@details@InferenceEngine@@@std@@AEAVxml_node@pugi@@@Z
?ParseDims@FormatParser@details@InferenceEngine@@QEBAXAEAV?$vector@_KV?$allocator@_K@std@@@std@@AEBVxml_node@pugi@@@Z
?ParseGenericParams@FormatParser@details@InferenceEngine@@AEBAXAEAVxml_node@pugi@@AEAULayerParseParameters@23@@Z
?ParseInputData@FormatParser@details@InferenceEngine@@AEBA?AV?$shared_ptr@VData@InferenceEngine@@@std@@AEAVxml_node@pugi@@@Z
?ParsePort@FormatParser@details@InferenceEngine@@AEBAXAEAULayerPortData@LayerParseParameters@23@AEAVxml_node@pugi@@@Z
?ParsePreProcess@FormatParser@details@InferenceEngine@@AEAAXAEAVxml_node@pugi@@@Z
?ParseStatisticSection@FormatParser@details@InferenceEngine@@AEAAXAEBVxml_node@pugi@@@Z
?PropagateScaleFactors@CNNNetworkInt8Normalizer@details@InferenceEngine@@KAXAEAVCNNNetwork@3@AEBVCNNStatisticHelper@23@@Z
?QuantizeConvolutionOrFullyConnected@CNNNetworkInt8Normalizer@details@InferenceEngine@@KAXV?$shared_ptr@VCNNLayer@InferenceEngine@@@std@@AEAVCNNStatisticHelper@23@@Z
?QueryNetwork@Core@InferenceEngine@@QEBA?AUQueryNetworkResult@2@AEBVICNNNetwork@2@AEBV?$basic_string@DU?$char_traits@D@std@@V?$allocator@D@2@@std@@AEBV?$map@V?$basic_string@DU?$char_traits@D@std@@V?$allocator@D@2@@std@@V12@U?$less@V?$basic_string@DU?$char_traits@D@std@@V?$allocator@D@2@@std@@@2@V?$allocator@U?$pair@$$CBV?$basic_string@DU?$char_traits@D@std@@V?$allocator@D@2@@std@@V12@@std@@@2@@6@@Z
?QueryNetwork@IHeteroDeviceLoader@InferenceEngine@@UEAAXAEBV?$basic_string@DU?$char_traits@D@std@@V?$allocator@D@2@@std@@AEBVICNNNetwork@2@AEAUQueryNetworkResult@2@@Z
?RegisterPlugin@Core@InferenceEngine@@QEAAXAEBV?$basic_string@DU?$char_traits@D@std@@V?$allocator@D@2@@std@@0@Z
?RegisterPlugins@Core@InferenceEngine@@QEAAXAEBV?$basic_string@DU?$char_traits@D@std@@V?$allocator@D@2@@std@@@Z
?Release@BuiltInShapeInferHolder@ShapeInfer@InferenceEngine@@UEAAXXZ
?Release@CNNNetworkImpl@details@InferenceEngine@@UEAAXXZ
?Release@CNNNetworkStatsImpl@details@InferenceEngine@@UEAAXXZ
?ScaleDataToInt@CNNNetworkInt8Normalizer@details@InferenceEngine@@KAXPEBM_KV?$shared_ptr@VBlob@InferenceEngine@@@std@@AEBV?$vector@MV?$allocator@M@std@@@5@@Z
?SetConfig@Core@InferenceEngine@@QEAAXAEBV?$map@V?$basic_string@DU?$char_traits@D@std@@V?$allocator@D@2@@std@@V12@U?$less@V?$basic_string@DU?$char_traits@D@std@@V?$allocator@D@2@@std@@@2@V?$allocator@U?$pair@$$CBV?$basic_string@DU?$char_traits@D@std@@V?$allocator@D@2@@std@@V12@@std@@@2@@std@@AEBV?$basic_string@DU?$char_traits@D@std@@V?$allocator@D@2@@4@@Z
?SetLayerInput@FormatParser@details@InferenceEngine@@AEAAXAEAVCNNNetworkImpl@23@AEBV?$basic_string@DU?$char_traits@D@std@@V?$allocator@D@2@@std@@AEAV?$shared_ptr@VCNNLayer@InferenceEngine@@@6@H@Z
?SetLogCallback@BuiltInShapeInferHolder@ShapeInfer@InferenceEngine@@UEAAXAEAVIErrorListener@3@@Z
?SetLogCallback@Core@InferenceEngine@@QEBAXAEAVIErrorListener@2@@Z
?SetWeights@FormatParser@details@InferenceEngine@@UEAAXAEBV?$shared_ptr@V?$TBlob@EU?$enable_if@$00X@std@@@InferenceEngine@@@std@@@Z
?TIBodySortTopologically@NetPass@InferenceEngine@@YA?AV?$vector@V?$shared_ptr@VCNNLayer@InferenceEngine@@@std@@V?$allocator@V?$shared_ptr@VCNNLayer@InferenceEngine@@@std@@@2@@std@@AEBUBody@TensorIterator@2@@Z
?TaskStatus2StatusCode@Task@InferenceEngine@@SA?AW4StatusCode@2@W4Status@12@@Z
?Unload@BuiltInShapeInferHolder@ShapeInfer@InferenceEngine@@UEAAXXZ
?UnregisterPlugin@Core@InferenceEngine@@QEAAXAEBV?$basic_string@DU?$char_traits@D@std@@V?$allocator@D@2@@std@@@Z
?UnrollRNN_if@NetPass@InferenceEngine@@YA_NAEAUBody@TensorIterator@2@V?$function@$$A6A_NAEBVRNNCellBase@InferenceEngine@@@Z@std@@@Z
?UnrollRNN_if@NetPass@InferenceEngine@@YA_NAEAVICNNNetwork@2@V?$function@$$A6A_NAEBVRNNCellBase@InferenceEngine@@@Z@std@@@Z
?UnrollTI@NetPass@InferenceEngine@@YA_NAEAVICNNNetwork@2@@Z
?addExtension@Context@InferenceEngine@@QEAAXAEBV?$shared_ptr@VIShapeInferExtension@InferenceEngine@@@std@@@Z
?addLayer@CNNNetworkImpl@details@InferenceEngine@@UEAAXAEBV?$shared_ptr@VCNNLayer@InferenceEngine@@@std@@@Z
?addLayer@Network@Builder@InferenceEngine@@QEAA_KAEBV?$vector@VPortInfo@InferenceEngine@@V?$allocator@VPortInfo@InferenceEngine@@@std@@@std@@AEBVLayer@23@@Z
?addLayer@Network@Builder@InferenceEngine@@QEAA_KAEBVLayer@23@@Z
?addOutput@CNNNetworkImpl@details@InferenceEngine@@QEAAXAEBV?$basic_string@DU?$char_traits@D@std@@V?$allocator@D@2@@std@@@Z
?addOutput@CNNNetworkImpl@details@InferenceEngine@@UEAA?AW4StatusCode@3@AEBV?$basic_string@DU?$char_traits@D@std@@V?$allocator@D@2@@std@@_KPEAUResponseDesc@3@@Z
?addShapeInferImpl@Context@InferenceEngine@@QEAAXAEBV?$basic_string@DU?$char_traits@D@std@@V?$allocator@D@2@@std@@AEBV?$shared_ptr@VIShapeInferImpl@InferenceEngine@@@4@@Z
?addU8ToI8Conversion@CNNNetworkInt8Normalizer@details@InferenceEngine@@KA?AV?$shared_ptr@VCNNLayer@InferenceEngine@@@std@@V?$shared_ptr@VData@InferenceEngine@@@5@V45@AEAVCNNStatisticHelper@23@@Z
?addValidator@Layer@Builder@InferenceEngine@@SAXAEBV?$basic_string@DU?$char_traits@D@std@@V?$allocator@D@2@@std@@AEBV?$function@$$A6AXAEBV?$shared_ptr@$$CBVLayer@Builder@InferenceEngine@@@std@@_N@Z@5@@Z
?allLayers@CNNNetworkImpl@details@InferenceEngine@@QEBAAEBV?$map@V?$basic_string@DU?$char_traits@D@std@@V?$allocator@D@2@@std@@V?$shared_ptr@VCNNLayer@InferenceEngine@@@2@U?$less@V?$basic_string@DU?$char_traits@D@std@@V?$allocator@D@2@@std@@@2@V?$allocator@U?$pair@$$CBV?$basic_string@DU?$char_traits@D@std@@V?$allocator@D@2@@std@@V?$shared_ptr@VCNNLayer@InferenceEngine@@@2@@std@@@2@@std@@XZ
?allocate@CompoundBlob@InferenceEngine@@UEAAXXZ
?apply@Reshaper@ShapeInfer@InferenceEngine@@QEAA?AW4StatusCode@3@PEAUResponseDesc@3@@Z
?backward@traverse@InferenceEngine@@YAXAEBV?$shared_ptr@VCNNLayer@InferenceEngine@@@std@@AEAV?$deque@V?$shared_ptr@VCNNLayer@InferenceEngine@@@std@@V?$allocator@V?$shared_ptr@VCNNLayer@InferenceEngine@@@std@@@2@@4@@Z
?begin@Network@Builder@InferenceEngine@@QEAA?AV?$INetworkIterator@VNetwork@Builder@InferenceEngine@@VLayer@23@@details@3@XZ
?begin@Network@Builder@InferenceEngine@@UEBA?AV?$INetworkIterator@$$CBVINetwork@InferenceEngine@@$$CBVILayer@2@@details@3@XZ
?blob_copy@InferenceEngine@@YAXV?$shared_ptr@VBlob@InferenceEngine@@@std@@0@Z
?buffer@CompoundBlob@InferenceEngine@@UEAA?AV?$LockedMemory@X@2@XZ
?build@Layer@Builder@InferenceEngine@@QEBA?BV?$shared_ptr@$$CBVILayer@InferenceEngine@@@std@@XZ
?build@Network@Builder@InferenceEngine@@QEAA?BV?$shared_ptr@$$CBVINetwork@InferenceEngine@@@std@@XZ
?byteSize@CompoundBlob@InferenceEngine@@UEBA_KXZ
?canLayerBeI8@CNNNetworkInt8Normalizer@details@InferenceEngine@@KA_NAEBV?$shared_ptr@VCNNLayer@InferenceEngine@@@std@@@Z
?cbuffer@CompoundBlob@InferenceEngine@@UEBA?AV?$LockedMemory@$$CBX@2@XZ
?checkException@Task@InferenceEngine@@QEAAXXZ
?checkType@LayerDecorator@Builder@InferenceEngine@@IEBAXAEBV?$basic_string@DU?$char_traits@D@std@@V?$allocator@D@2@@std@@@Z
?clear@ExecutorManager@InferenceEngine@@QEAAXXZ
?cloneData@InferenceEngine@@YA?AV?$shared_ptr@VData@InferenceEngine@@@std@@AEBVData@1@@Z
?cloneNet@InferenceEngine@@YA?AV?$shared_ptr@VCNNNetworkImpl@details@InferenceEngine@@@std@@AEBV?$vector@V?$shared_ptr@VCNNLayer@InferenceEngine@@@std@@V?$allocator@V?$shared_ptr@VCNNLayer@InferenceEngine@@@std@@@2@@3@PEBVICNNNetworkStats@1@V?$function@$$A6A?AV?$shared_ptr@VCNNLayer@InferenceEngine@@@std@@AEBVCNNLayer@InferenceEngine@@@Z@3@@Z
?cloneNet@InferenceEngine@@YA?AV?$shared_ptr@VCNNNetworkImpl@details@InferenceEngine@@@std@@AEBVICNNNetwork@1@@Z
?clonelayer@InferenceEngine@@YA?AV?$shared_ptr@VCNNLayer@InferenceEngine@@@std@@AEBVCNNLayer@1@@Z
?connect@Network@Builder@InferenceEngine@@QEAAXAEBVPortInfo@3@0@Z
?convertBlobFP16toFP32@InferenceEngine@@YA?AV?$shared_ptr@VBlob@InferenceEngine@@@std@@AEBV23@@Z
?convertFunctionToICNNNetwork@InferenceEngine@@YA?AV?$shared_ptr@VICNNNetwork@InferenceEngine@@@std@@AEBV?$shared_ptr@VFunction@ngraph@@@3@@Z
?convertLayerFP16toFP32@InferenceEngine@@YAXAEBV?$shared_ptr@VCNNLayer@InferenceEngine@@@std@@@Z
?convertToICNNNetwork@Builder@InferenceEngine@@YA?BV?$shared_ptr@VICNNNetwork@InferenceEngine@@@std@@AEBV?$shared_ptr@$$CBVINetwork@InferenceEngine@@@4@@Z
?createDWConvolutionForScale@CNNNetworkInt8Normalizer@details@InferenceEngine@@KA?AV?$shared_ptr@VCNNLayer@InferenceEngine@@@std@@AEBV?$basic_string@DU?$char_traits@D@std@@V?$allocator@D@2@@5@_KPEAM2@Z
?createData@PortData@InferenceEngine@@AEAAXAEBVTensorDesc@2@@Z
?createInputLauncher@LauncherCreator@ShapeInfer@InferenceEngine@@UEAA?AV?$shared_ptr@VReshapeLauncher@ShapeInfer@InferenceEngine@@@std@@PEBVCNNLayer@3@AEBV?$vector@V?$shared_ptr@VIShapeInferExtension@InferenceEngine@@@std@@V?$allocator@V?$shared_ptr@VIShapeInferExtension@InferenceEngine@@@std@@@2@@5@@Z
?createNotInputLauncher@LauncherCreator@ShapeInfer@InferenceEngine@@UEAA?AV?$shared_ptr@VReshapeLauncher@ShapeInfer@InferenceEngine@@@std@@PEBVCNNLayer@3@AEBV?$vector@V?$shared_ptr@VIShapeInferExtension@InferenceEngine@@@std@@V?$allocator@V?$shared_ptr@VIShapeInferExtension@InferenceEngine@@@std@@@2@@5@@Z
?deallocate@CompoundBlob@InferenceEngine@@UEAA_NXZ
?disconnect@Network@Builder@InferenceEngine@@QEAAXAEBVConnection@3@@Z
?element_size@CompoundBlob@InferenceEngine@@UEBA_KXZ
?end@Network@Builder@InferenceEngine@@QEAA?AV?$INetworkIterator@VNetwork@Builder@InferenceEngine@@VLayer@23@@details@3@XZ
?end@Network@Builder@InferenceEngine@@UEBA?AV?$INetworkIterator@$$CBVINetwork@InferenceEngine@@$$CBVILayer@2@@details@3@XZ
?execute@PreProcessData@InferenceEngine@@QEAAXAEAV?$shared_ptr@VBlob@InferenceEngine@@@std@@AEBVPreProcessInfo@2@_NH@Z
?f16tof32@PrecisionUtils@InferenceEngine@@YAMF@Z
?f16tof32Arrays@PrecisionUtils@InferenceEngine@@YAXPEAMPEBF_KMM@Z
?f32tof16@PrecisionUtils@InferenceEngine@@YAFM@Z
?f32tof16Arrays@PrecisionUtils@InferenceEngine@@YAXPEAFPEBM_KMM@Z
?fileExt@FileUtils@@YA?AV?$basic_string@DU?$char_traits@D@std@@V?$allocator@D@2@@std@@AEBV23@@Z
?fileExt@FileUtils@@YA?AV?$basic_string@DU?$char_traits@D@std@@V?$allocator@D@2@@std@@PEBD@Z
?fileNameNoExt@FileUtils@@YA?AV?$basic_string@DU?$char_traits@D@std@@V?$allocator@D@2@@std@@AEBV23@@Z
?fileSize@FileUtils@@YA_JPEBD@Z
?fillDesc@BlockingDesc@InferenceEngine@@IEAAXAEBV?$vector@_KV?$allocator@_K@std@@@std@@0@Z
?fillInScaleShift@CNNNetworkInt8Normalizer@details@InferenceEngine@@CAXPEAVScaleShiftLayer@3@_KPEAM2@Z
?foldConstSubgraphs@ConstTransformer@InferenceEngine@@QEAAXXZ
?foldConstSubgraphsInternal@ConstTransformer@InferenceEngine@@MEAA?AV?$vector@V?$basic_string@DU?$char_traits@D@std@@V?$allocator@D@2@@std@@V?$allocator@V?$basic_string@DU?$char_traits@D@std@@V?$allocator@D@2@@std@@@2@@std@@AEBV?$map@V?$basic_string@DU?$char_traits@D@std@@V?$allocator@D@2@@std@@_NU?$less@V?$basic_string@DU?$char_traits@D@std@@V?$allocator@D@2@@std@@@2@V?$allocator@U?$pair@$$CBV?$basic_string@DU?$char_traits@D@std@@V?$allocator@D@2@@std@@_N@std@@@2@@4@AEBV?$map@V?$basic_string@DU?$char_traits@D@std@@V?$allocator@D@2@@std@@V?$shared_ptr@VBlob@InferenceEngine@@@2@U?$less@V?$basic_string@DU?$char_traits@D@std@@V?$allocator@D@2@@std@@@2@V?$allocator@U?$pair@$$CBV?$basic_string@DU?$char_traits@D@std@@V?$allocator@D@2@@std@@V?$shared_ptr@VBlob@InferenceEngine@@@2@@std@@@2@@4@AEBV?$vector@V?$shared_ptr@VCNNLayer@InferenceEngine@@@std@@V?$allocator@V?$shared_ptr@VCNNLayer@InferenceEngine@@@std@@@2@@4@@Z
?folderOf@FileUtils@@YA?AV?$basic_string@DU?$char_traits@D@std@@V?$allocator@D@2@@std@@AEBV23@@Z
?forward@traverse@InferenceEngine@@YAXAEBV?$shared_ptr@VCNNLayer@InferenceEngine@@@std@@AEAV?$deque@V?$shared_ptr@VCNNLayer@InferenceEngine@@@std@@V?$allocator@V?$shared_ptr@VCNNLayer@InferenceEngine@@@std@@@2@@4@@Z
?fullTrim@ConstTransformer@InferenceEngine@@QEAAXXZ
?getAcrossChannels@MVNLayer@Builder@InferenceEngine@@QEBA_NXZ
?getAcrossMaps@NormLayer@Builder@InferenceEngine@@QEBA_NXZ
?getAcrossMaps@NormalizeLayer@Builder@InferenceEngine@@QEBA_NXZ
?getActivations@GRUSequenceLayer@Builder@InferenceEngine@@QEBAAEBV?$vector@V?$basic_string@DU?$char_traits@D@std@@V?$allocator@D@2@@std@@V?$allocator@V?$basic_string@DU?$char_traits@D@std@@V?$allocator@D@2@@std@@@2@@std@@XZ
?getActivations@LSTMSequenceLayer@Builder@InferenceEngine@@QEBAAEBV?$vector@V?$basic_string@DU?$char_traits@D@std@@V?$allocator@D@2@@std@@V?$allocator@V?$basic_string@DU?$char_traits@D@std@@V?$allocator@D@2@@std@@@2@@std@@XZ
?getActivations@RNNSequenceLayer@Builder@InferenceEngine@@QEBAAEBV?$vector@V?$basic_string@DU?$char_traits@D@std@@V?$allocator@D@2@@std@@V?$allocator@V?$basic_string@DU?$char_traits@D@std@@V?$allocator@D@2@@std@@@2@@std@@XZ
?getActivationsAlpha@GRUSequenceLayer@Builder@InferenceEngine@@QEBAAEBV?$vector@MV?$allocator@M@std@@@std@@XZ
?getActivationsAlpha@LSTMSequenceLayer@Builder@InferenceEngine@@QEBAAEBV?$vector@MV?$allocator@M@std@@@std@@XZ
?getActivationsAlpha@RNNSequenceLayer@Builder@InferenceEngine@@QEBAAEBV?$vector@MV?$allocator@M@std@@@std@@XZ
?getActivationsBeta@GRUSequenceLayer@Builder@InferenceEngine@@QEBAAEBV?$vector@MV?$allocator@M@std@@@std@@XZ
?getActivationsBeta@LSTMSequenceLayer@Builder@InferenceEngine@@QEBAAEBV?$vector@MV?$allocator@M@std@@@std@@XZ
?getActivationsBeta@RNNSequenceLayer@Builder@InferenceEngine@@QEBAAEBV?$vector@MV?$allocator@M@std@@@std@@XZ
?getAllocator@CompoundBlob@InferenceEngine@@MEBAAEBV?$shared_ptr@VIAllocator@InferenceEngine@@@std@@XZ
?getAlpha@ELULayer@Builder@InferenceEngine@@QEBAMXZ
?getAlpha@LRNLayer@Builder@InferenceEngine@@QEBAMXZ
?getAlpha@NormLayer@Builder@InferenceEngine@@QEBAMXZ
?getAnchors@RegionYoloLayer@Builder@InferenceEngine@@QEBAMXZ
?getAntialias@ResampleLayer@Builder@InferenceEngine@@QEBA_NXZ
?getAspectRatio@PriorBoxLayer@Builder@InferenceEngine@@QEBA?BV?$vector@_KV?$allocator@_K@std@@@std@@XZ
?getAxis@ArgMaxLayer@Builder@InferenceEngine@@QEBAHXZ
?getAxis@ConcatLayer@Builder@InferenceEngine@@QEBA_KXZ
?getAxis@CropLayer@Builder@InferenceEngine@@QEBA?BV?$vector@_KV?$allocator@_K@std@@@std@@XZ
?getAxis@RegionYoloLayer@Builder@InferenceEngine@@QEBA_KXZ
?getAxis@SoftMaxLayer@Builder@InferenceEngine@@QEBA_KXZ
?getAxis@SplitLayer@Builder@InferenceEngine@@QEBA_KXZ
?getAxis@TileLayer@Builder@InferenceEngine@@QEBA_KXZ
?getBackgroudLabelId@DetectionOutputLayer@Builder@InferenceEngine@@QEBAHXZ
?getBaseSize@ProposalLayer@Builder@InferenceEngine@@QEBA_KXZ
?getBatchSize@CNNNetworkImpl@details@InferenceEngine@@UEBA_KXZ
?getBeta@GRNLayer@Builder@InferenceEngine@@QEBAMXZ
?getBeta@LRNLayer@Builder@InferenceEngine@@QEBAMXZ
?getBeta@NormLayer@Builder@InferenceEngine@@QEBAMXZ
?getBias@LRNLayer@Builder@InferenceEngine@@QEBAMXZ
?getBlob@CompoundBlob@InferenceEngine@@UEBA?AV?$shared_ptr@VBlob@InferenceEngine@@@std@@_K@Z
?getBlockDims@BlockingDesc@InferenceEngine@@QEBAAEBV?$vector@_KV?$allocator@_K@std@@@std@@XZ
?getBlockingDesc@TensorDesc@InferenceEngine@@QEBAAEBVBlockingDesc@2@XZ
?getCLSThreshold@SimplerNMSLayer@Builder@InferenceEngine@@QEBAMXZ
?getCTCMergeRepeated@CTCGreedyDecoderLayer@Builder@InferenceEngine@@QEBA_NXZ
?getChannelShared@NormalizeLayer@Builder@InferenceEngine@@QEBA_NXZ
?getChannelShared@PReLULayer@Builder@InferenceEngine@@QEBA_NXZ
?getClasses@RegionYoloLayer@Builder@InferenceEngine@@QEBAHXZ
?getClip@GRUSequenceLayer@Builder@InferenceEngine@@QEBAMXZ
?getClip@LSTMSequenceLayer@Builder@InferenceEngine@@QEBAMXZ
?getClip@PriorBoxClusteredLayer@Builder@InferenceEngine@@QEBA_NXZ
?getClip@PriorBoxLayer@Builder@InferenceEngine@@QEBA_NXZ
?getCodeType@DetectionOutputLayer@Builder@InferenceEngine@@QEBA?AV?$basic_string@DU?$char_traits@D@std@@V?$allocator@D@2@@std@@XZ
?getConfidenceThreshold@DetectionOutputLayer@Builder@InferenceEngine@@QEBAMXZ
?getConnections@Network@Builder@InferenceEngine@@QEBAAEBV?$vector@VConnection@InferenceEngine@@V?$allocator@VConnection@InferenceEngine@@@std@@@std@@XZ
?getConstData@ConstTransformer@InferenceEngine@@MEAA?BV?$map@V?$basic_string@DU?$char_traits@D@std@@V?$allocator@D@2@@std@@V?$shared_ptr@VBlob@InferenceEngine@@@2@U?$less@V?$basic_string@DU?$char_traits@D@std@@V?$allocator@D@2@@std@@@2@V?$allocator@U?$pair@$$CBV?$basic_string@DU?$char_traits@D@std@@V?$allocator@D@2@@std@@V?$shared_ptr@VBlob@InferenceEngine@@@2@@std@@@2@@std@@AEBV?$map@V?$basic_string@DU?$char_traits@D@std@@V?$allocator@D@2@@std@@_NU?$less@V?$basic_string@DU?$char_traits@D@std@@V?$allocator@D@2@@std@@@2@V?$allocator@U?$pair@$$CBV?$basic_string@DU?$char_traits@D@std@@V?$allocator@D@2@@std@@_N@std@@@2@@4@AEBV?$vector@V?$shared_ptr@VCNNLayer@InferenceEngine@@@std@@V?$allocator@V?$shared_ptr@VCNNLayer@InferenceEngine@@@std@@@2@@4@@Z
?getConstInferImpl@ConstInferHolder@ShapeInfer@InferenceEngine@@QEAA?AV?$shared_ptr@VIConstInferImpl@ShapeInfer@InferenceEngine@@@std@@AEBV?$basic_string@DU?$char_traits@D@std@@V?$allocator@D@2@@5@@Z
?getConstInferTypes@ConstInferHolder@ShapeInfer@InferenceEngine@@QEAA?AV?$list@V?$basic_string@DU?$char_traits@D@std@@V?$allocator@D@2@@std@@V?$allocator@V?$basic_string@DU?$char_traits@D@std@@V?$allocator@D@2@@std@@@2@@std@@XZ
?getConstLayers@ConstTransformer@InferenceEngine@@MEAA?BV?$map@V?$basic_string@DU?$char_traits@D@std@@V?$allocator@D@2@@std@@_NU?$less@V?$basic_string@DU?$char_traits@D@std@@V?$allocator@D@2@@std@@@2@V?$allocator@U?$pair@$$CBV?$basic_string@DU?$char_traits@D@std@@V?$allocator@D@2@@std@@_N@std@@@2@@std@@AEBV?$vector@V?$shared_ptr@VCNNLayer@InferenceEngine@@@std@@V?$allocator@V?$shared_ptr@VCNNLayer@InferenceEngine@@@std@@@2@@4@@Z
?getContext@Network@Builder@InferenceEngine@@QEAAAEAVContext@3@XZ
?getContext@Network@Builder@InferenceEngine@@UEBAAEBVContext@3@XZ
?getCoords@RegionYoloLayer@Builder@InferenceEngine@@QEBAHXZ
?getCreatorLayer@Data@InferenceEngine@@QEAAAEAV?$weak_ptr@VCNNLayer@InferenceEngine@@@std@@XZ
?getData@CNNNetworkImpl@details@InferenceEngine@@QEAAAEAV?$shared_ptr@VData@InferenceEngine@@@std@@AEBV?$basic_string@DU?$char_traits@D@std@@V?$allocator@D@2@@5@@Z
?getData@CNNNetworkImpl@details@InferenceEngine@@UEAAAEAV?$shared_ptr@VData@InferenceEngine@@@std@@PEBD@Z
?getData@ConstLayer@Builder@InferenceEngine@@QEBAAEBV?$shared_ptr@$$CBVBlob@InferenceEngine@@@std@@XZ
?getData@Port@InferenceEngine@@QEBAAEBV?$shared_ptr@VPortData@InferenceEngine@@@std@@XZ
?getData@PortData@InferenceEngine@@QEBAAEBV?$shared_ptr@VBlob@InferenceEngine@@@std@@XZ
?getDeformableGroup@DeformableConvolutionLayer@Builder@InferenceEngine@@QEBA_KXZ
?getDeviceID@DeviceIDParser@InferenceEngine@@QEBA?AV?$basic_string@DU?$char_traits@D@std@@V?$allocator@D@2@@std@@XZ
?getDeviceName@DeviceIDParser@InferenceEngine@@QEBA?AV?$basic_string@DU?$char_traits@D@std@@V?$allocator@D@2@@std@@XZ
?getDilation@ConvolutionLayer@Builder@InferenceEngine@@QEBA?BV?$vector@_KV?$allocator@_K@std@@@std@@XZ
?getDims@Data@InferenceEngine@@QEBAAEBV?$vector@_KV?$allocator@_K@std@@@std@@XZ
?getDims@ReshapeLayer@Builder@InferenceEngine@@QEBA?BV?$vector@HV?$allocator@H@std@@@std@@XZ
?getDims@TensorDesc@InferenceEngine@@QEAAAEAV?$vector@_KV?$allocator@_K@std@@@std@@XZ
?getDims@TensorDesc@InferenceEngine@@QEBAAEBV?$vector@_KV?$allocator@_K@std@@@std@@XZ
?getDirection@GRUSequenceLayer@Builder@InferenceEngine@@QEBAAEBV?$basic_string@DU?$char_traits@D@std@@V?$allocator@D@2@@std@@XZ
?getDirection@LSTMSequenceLayer@Builder@InferenceEngine@@QEBAAEBV?$basic_string@DU?$char_traits@D@std@@V?$allocator@D@2@@std@@XZ
?getDoSoftMax@RegionYoloLayer@Builder@InferenceEngine@@QEBA_NXZ
?getEltwiseType@EltwiseLayer@Builder@InferenceEngine@@QEBA?AW4EltwiseType@123@XZ
?getEndAxis@RegionYoloLayer@Builder@InferenceEngine@@QEBA_KXZ
?getEpsilon@BatchNormalizationLayer@Builder@InferenceEngine@@QEBAMXZ
?getEpsilon@MVNLayer@Builder@InferenceEngine@@QEBAMXZ
?getEpsilon@NormalizeLayer@Builder@InferenceEngine@@QEBAMXZ
?getExcludePad@PoolingLayer@Builder@InferenceEngine@@QEBA_NXZ
?getExecutor@ExecutorManager@InferenceEngine@@QEAA?AV?$shared_ptr@VITaskExecutor@InferenceEngine@@@std@@V?$basic_string@DU?$char_traits@D@std@@V?$allocator@D@2@@4@@Z
?getExecutorsNumber@ExecutorManager@InferenceEngine@@QEAA_KXZ
?getFactor@ResampleLayer@Builder@InferenceEngine@@QEBAMXZ
?getFeatStride@ProposalLayer@Builder@InferenceEngine@@QEBA_KXZ
?getFeatStride@SimplerNMSLayer@Builder@InferenceEngine@@QEBA_KXZ
?getFlip@PriorBoxClusteredLayer@Builder@InferenceEngine@@QEBA_NXZ
?getFlip@PriorBoxLayer@Builder@InferenceEngine@@QEBA_NXZ
?getGroup@ConvolutionLayer@Builder@InferenceEngine@@QEBA_KXZ
?getGroupSize@PSROIPoolingLayer@Builder@InferenceEngine@@QEBA_KXZ
?getHandle@CompoundBlob@InferenceEngine@@MEBAPEAXXZ
?getHeight@PriorBoxClusteredLayer@Builder@InferenceEngine@@QEBAMXZ
?getHeight@ResampleLayer@Builder@InferenceEngine@@QEBA_KXZ
?getHeteroDevices@DeviceIDParser@InferenceEngine@@SA?AV?$vector@V?$basic_string@DU?$char_traits@D@std@@V?$allocator@D@2@@std@@V?$allocator@V?$basic_string@DU?$char_traits@D@std@@V?$allocator@D@2@@std@@@2@@std@@V?$basic_string@DU?$char_traits@D@std@@V?$allocator@D@2@@4@@Z
?getHiddenSize@GRUSequenceLayer@Builder@InferenceEngine@@QEBAHXZ
?getHiddenSize@LSTMSequenceLayer@Builder@InferenceEngine@@QEBAHXZ
?getHiddenSize@RNNSequenceLayer@Builder@InferenceEngine@@QEBAHXZ
?getIELibraryPath@InferenceEngine@@YA?AV?$basic_string@DU?$char_traits@D@std@@V?$allocator@D@2@@std@@XZ
?getIOUThreshold@SimplerNMSLayer@Builder@InferenceEngine@@QEBAMXZ
?getId@Layer@Builder@InferenceEngine@@UEBA_KXZ
?getId@MemoryLayer@Builder@InferenceEngine@@QEBA?BV?$basic_string@DU?$char_traits@D@std@@V?$allocator@D@2@@std@@XZ
?getImgSizes@PriorBoxClusteredLayer@Builder@InferenceEngine@@QEBA?BV?$vector@MV?$allocator@M@std@@@std@@XZ
?getIndex@MemoryLayer@Builder@InferenceEngine@@QEBA_KXZ
?getInput@CNNNetworkImpl@details@InferenceEngine@@UEBA?AV?$shared_ptr@VInputInfo@InferenceEngine@@@std@@AEBV?$basic_string@DU?$char_traits@D@std@@V?$allocator@D@2@@5@@Z
?getInputForget@LSTMSequenceLayer@Builder@InferenceEngine@@QEBA_NXZ
?getInputPort@ConvolutionLayer@Builder@InferenceEngine@@QEBAAEBVPort@3@XZ
?getInputPort@FullyConnectedLayer@Builder@InferenceEngine@@QEBAAEBVPort@3@XZ
?getInputPort@MemoryLayer@Builder@InferenceEngine@@QEBAAEBVPort@3@XZ
?getInputPort@PermuteLayer@Builder@InferenceEngine@@QEBAAEBVPort@3@XZ
?getInputPort@PoolingLayer@Builder@InferenceEngine@@QEBAAEBVPort@3@XZ
?getInputPort@RegionYoloLayer@Builder@InferenceEngine@@QEBAAEBVPort@3@XZ
?getInputPort@ReorgYoloLayer@Builder@InferenceEngine@@QEBAAEBVPort@3@XZ
?getInputPort@ResampleLayer@Builder@InferenceEngine@@QEBAAEBVPort@3@XZ
?getInputPort@ReshapeLayer@Builder@InferenceEngine@@QEBAAEBVPort@3@XZ
?getInputPort@SplitLayer@Builder@InferenceEngine@@QEBAAEBVPort@3@XZ
?getInputPort@TileLayer@Builder@InferenceEngine@@QEBAAEBVPort@3@XZ
?getInputPorts@CTCGreedyDecoderLayer@Builder@InferenceEngine@@QEBAAEBV?$vector@VPort@InferenceEngine@@V?$allocator@VPort@InferenceEngine@@@std@@@std@@XZ
?getInputPorts@ConcatLayer@Builder@InferenceEngine@@QEBAAEBV?$vector@VPort@InferenceEngine@@V?$allocator@VPort@InferenceEngine@@@std@@@std@@XZ
?getInputPorts@CropLayer@Builder@InferenceEngine@@QEBAAEBV?$vector@VPort@InferenceEngine@@V?$allocator@VPort@InferenceEngine@@@std@@@std@@XZ
?getInputPorts@DetectionOutputLayer@Builder@InferenceEngine@@QEBAAEBV?$vector@VPort@InferenceEngine@@V?$allocator@VPort@InferenceEngine@@@std@@@std@@XZ
?getInputPorts@EltwiseLayer@Builder@InferenceEngine@@QEBAAEBV?$vector@VPort@InferenceEngine@@V?$allocator@VPort@InferenceEngine@@@std@@@std@@XZ
?getInputPorts@GRUSequenceLayer@Builder@InferenceEngine@@QEBAAEBV?$vector@VPort@InferenceEngine@@V?$allocator@VPort@InferenceEngine@@@std@@@std@@XZ
?getInputPorts@LSTMSequenceLayer@Builder@InferenceEngine@@QEBAAEBV?$vector@VPort@InferenceEngine@@V?$allocator@VPort@InferenceEngine@@@std@@@std@@XZ
?getInputPorts@Layer@Builder@InferenceEngine@@QEAAAEAV?$vector@VPort@InferenceEngine@@V?$allocator@VPort@InferenceEngine@@@std@@@std@@XZ
?getInputPorts@Layer@Builder@InferenceEngine@@UEBAAEBV?$vector@VPort@InferenceEngine@@V?$allocator@VPort@InferenceEngine@@@std@@@std@@XZ
?getInputPorts@PSROIPoolingLayer@Builder@InferenceEngine@@QEBAAEBV?$vector@VPort@InferenceEngine@@V?$allocator@VPort@InferenceEngine@@@std@@@std@@XZ
?getInputPorts@PriorBoxClusteredLayer@Builder@InferenceEngine@@QEBAAEBV?$vector@VPort@InferenceEngine@@V?$allocator@VPort@InferenceEngine@@@std@@@std@@XZ
?getInputPorts@PriorBoxLayer@Builder@InferenceEngine@@QEBAAEBV?$vector@VPort@InferenceEngine@@V?$allocator@VPort@InferenceEngine@@@std@@@std@@XZ
?getInputPorts@ProposalLayer@Builder@InferenceEngine@@QEBAAEBV?$vector@VPort@InferenceEngine@@V?$allocator@VPort@InferenceEngine@@@std@@@std@@XZ
?getInputPorts@RNNSequenceLayer@Builder@InferenceEngine@@QEBAAEBV?$vector@VPort@InferenceEngine@@V?$allocator@VPort@InferenceEngine@@@std@@@std@@XZ
?getInputPorts@ROIPoolingLayer@Builder@InferenceEngine@@QEBAAEBV?$vector@VPort@InferenceEngine@@V?$allocator@VPort@InferenceEngine@@@std@@@std@@XZ
?getInputPorts@SimplerNMSLayer@Builder@InferenceEngine@@QEBAAEBV?$vector@VPort@InferenceEngine@@V?$allocator@VPort@InferenceEngine@@@std@@@std@@XZ
?getInputTo@Data@InferenceEngine@@QEAAAEAV?$map@V?$basic_string@DU?$char_traits@D@std@@V?$allocator@D@2@@std@@V?$shared_ptr@VCNNLayer@InferenceEngine@@@2@U?$less@V?$basic_string@DU?$char_traits@D@std@@V?$allocator@D@2@@std@@@2@V?$allocator@U?$pair@$$CBV?$basic_string@DU?$char_traits@D@std@@V?$allocator@D@2@@std@@V?$shared_ptr@VCNNLayer@InferenceEngine@@@2@@std@@@2@@std@@XZ
?getInputs@Network@Builder@InferenceEngine@@QEAA?AV?$vector@V?$shared_ptr@VLayer@Builder@InferenceEngine@@@std@@V?$allocator@V?$shared_ptr@VLayer@Builder@InferenceEngine@@@std@@@2@@std@@XZ
?getInputs@Network@Builder@InferenceEngine@@UEBA?BV?$vector@V?$shared_ptr@$$CBVILayer@InferenceEngine@@@std@@V?$allocator@V?$shared_ptr@$$CBVILayer@InferenceEngine@@@std@@@2@@std@@XZ
?getInputsInfo@CNNNetworkImpl@details@InferenceEngine@@UEBAXAEAV?$map@V?$basic_string@DU?$char_traits@D@std@@V?$allocator@D@2@@std@@V?$shared_ptr@VInputInfo@InferenceEngine@@@2@U?$less@V?$basic_string@DU?$char_traits@D@std@@V?$allocator@D@2@@std@@@2@V?$allocator@U?$pair@$$CBV?$basic_string@DU?$char_traits@D@std@@V?$allocator@D@2@@std@@V?$shared_ptr@VInputInfo@InferenceEngine@@@2@@std@@@2@@std@@@Z
?getInstance@ExecutorManager@InferenceEngine@@SAPEAV12@XZ
?getInterpolateOrientation@DetectionOutputLayer@Builder@InferenceEngine@@QEBAHXZ
?getKeepTopK@DetectionOutputLayer@Builder@InferenceEngine@@QEBAHXZ
?getKernel@ConvolutionLayer@Builder@InferenceEngine@@QEBA?BV?$vector@_KV?$allocator@_K@std@@@std@@XZ
?getKernel@PoolingLayer@Builder@InferenceEngine@@QEBA?BV?$vector@_KV?$allocator@_K@std@@@std@@XZ
?getLauncherByLayerName@Reshaper@ShapeInfer@InferenceEngine@@AEBA?AV?$shared_ptr@VReshapeLauncher@ShapeInfer@InferenceEngine@@@std@@AEBV?$basic_string@DU?$char_traits@D@std@@V?$allocator@D@2@@5@@Z
?getLayer@LayerDecorator@Builder@InferenceEngine@@IEAAAEAV?$shared_ptr@VLayer@Builder@InferenceEngine@@@std@@XZ
?getLayer@LayerDecorator@Builder@InferenceEngine@@IEBA?BV?$shared_ptr@$$CBVLayer@Builder@InferenceEngine@@@std@@XZ
?getLayer@Network@Builder@InferenceEngine@@QEAA?AV?$shared_ptr@VLayer@Builder@InferenceEngine@@@std@@_K@Z
?getLayer@Network@Builder@InferenceEngine@@UEBA?BV?$shared_ptr@$$CBVILayer@InferenceEngine@@@std@@_K@Z
?getLayerByName@CNNNetworkImpl@details@InferenceEngine@@UEBA?AW4StatusCode@3@PEBDAEAV?$shared_ptr@VCNNLayer@InferenceEngine@@@std@@PEAUResponseDesc@3@@Z
?getLayerConnections@Network@Builder@InferenceEngine@@UEBA?BV?$vector@VConnection@InferenceEngine@@V?$allocator@VConnection@InferenceEngine@@@std@@@std@@_K@Z
?getLayers@Network@Builder@InferenceEngine@@QEAAAEAV?$vector@V?$shared_ptr@VLayer@Builder@InferenceEngine@@@std@@V?$allocator@V?$shared_ptr@VLayer@Builder@InferenceEngine@@@std@@@2@@std@@XZ
?getLayers@Network@Builder@InferenceEngine@@QEBAAEBV?$vector@V?$shared_ptr@VLayer@Builder@InferenceEngine@@@std@@V?$allocator@V?$shared_ptr@VLayer@Builder@InferenceEngine@@@std@@@2@@std@@XZ
?getLayout@Data@InferenceEngine@@QEBA?AW4Layout@2@XZ
?getLayout@TensorDesc@InferenceEngine@@QEBA?AW4Layout@2@XZ
?getLayoutByDims@TensorDesc@InferenceEngine@@SA?AW4Layout@2@V?$vector@_KV?$allocator@_K@std@@@std@@@Z
?getLinearBeforeReset@GRUSequenceLayer@Builder@InferenceEngine@@QEBA_NXZ
?getMask@RegionYoloLayer@Builder@InferenceEngine@@QEBAHXZ
?getMaxSize@PriorBoxLayer@Builder@InferenceEngine@@QEBA_KXZ
?getMaxValue@ClampLayer@Builder@InferenceEngine@@QEBAMXZ
?getMinBoxSize@SimplerNMSLayer@Builder@InferenceEngine@@QEBA_KXZ
?getMinSize@PriorBoxLayer@Builder@InferenceEngine@@QEBA_KXZ
?getMinSize@ProposalLayer@Builder@InferenceEngine@@QEBA_KXZ
?getMinValue@ClampLayer@Builder@InferenceEngine@@QEBAMXZ
?getMultiDevices@DeviceIDParser@InferenceEngine@@SA?AV?$vector@V?$basic_string@DU?$char_traits@D@std@@V?$allocator@D@2@@std@@V?$allocator@V?$basic_string@DU?$char_traits@D@std@@V?$allocator@D@2@@std@@@2@@std@@V?$basic_string@DU?$char_traits@D@std@@V?$allocator@D@2@@4@@Z
?getN@ReLU6Layer@Builder@InferenceEngine@@QEBAMXZ
?getNMSThresh@ProposalLayer@Builder@InferenceEngine@@QEBAMXZ
?getNMSThreshold@DetectionOutputLayer@Builder@InferenceEngine@@QEBAMXZ
?getName@CNNNetworkImpl@details@InferenceEngine@@UEBAAEBV?$basic_string@DU?$char_traits@D@std@@V?$allocator@D@2@@std@@XZ
?getName@CNNNetworkImpl@details@InferenceEngine@@UEBAXPEAD_K@Z
?getName@Data@InferenceEngine@@QEBAAEBV?$basic_string@DU?$char_traits@D@std@@V?$allocator@D@2@@std@@XZ
?getName@Layer@Builder@InferenceEngine@@UEBAAEBV?$basic_string@DU?$char_traits@D@std@@V?$allocator@D@2@@std@@XZ
?getName@LayerDecorator@Builder@InferenceEngine@@QEBAAEBV?$basic_string@DU?$char_traits@D@std@@V?$allocator@D@2@@std@@XZ
?getName@Network@Builder@InferenceEngine@@UEBAAEBV?$basic_string@DU?$char_traits@D@std@@V?$allocator@D@2@@std@@XZ
?getNegativeSlope@ReLULayer@Builder@InferenceEngine@@QEBAMXZ
?getNodesStats@CNNNetworkStatsImpl@details@InferenceEngine@@UEBAAEBV?$map@V?$basic_string@DU?$char_traits@D@std@@V?$allocator@D@2@@std@@V?$shared_ptr@VNetworkNodeStats@InferenceEngine@@@2@U?$less@V?$basic_string@DU?$char_traits@D@std@@V?$allocator@D@2@@std@@@2@V?$allocator@U?$pair@$$CBV?$basic_string@DU?$char_traits@D@std@@V?$allocator@D@2@@std@@V?$shared_ptr@VNetworkNodeStats@InferenceEngine@@@2@@std@@@2@@std@@XZ
?getNormalize@MVNLayer@Builder@InferenceEngine@@QEBA_NXZ
?getNum@RegionYoloLayer@Builder@InferenceEngine@@QEBAHXZ
?getNumClasses@DetectionOutputLayer@Builder@InferenceEngine@@QEBA_KXZ
?getNumIteration@InferenceEngine@@YAHAEBVTensorIterator@1@@Z
?getNumOrientClasses@DetectionOutputLayer@Builder@InferenceEngine@@QEBAHXZ
?getOffset@CropLayer@Builder@InferenceEngine@@QEBA?BV?$vector@_KV?$allocator@_K@std@@@std@@XZ
?getOffset@PriorBoxClusteredLayer@Builder@InferenceEngine@@QEBAMXZ
?getOffset@PriorBoxLayer@Builder@InferenceEngine@@QEBAMXZ
?getOffsetPadding@BlockingDesc@InferenceEngine@@QEBA_KXZ
?getOffsetPaddingToData@BlockingDesc@InferenceEngine@@QEBAAEBV?$vector@_KV?$allocator@_K@std@@@std@@XZ
?getOrder@BlockingDesc@InferenceEngine@@QEBAAEBV?$vector@_KV?$allocator@_K@std@@@std@@XZ
?getOrder@PermuteLayer@Builder@InferenceEngine@@QEBA?BV?$vector@_KV?$allocator@_K@std@@@std@@XZ
?getOutDepth@ConvolutionLayer@Builder@InferenceEngine@@QEBA_KXZ
?getOutMaxVal@ArgMaxLayer@Builder@InferenceEngine@@QEBA_KXZ
?getOutputDim@PSROIPoolingLayer@Builder@InferenceEngine@@QEBA_KXZ
?getOutputNum@FullyConnectedLayer@Builder@InferenceEngine@@QEBA_KXZ
?getOutputPort@CTCGreedyDecoderLayer@Builder@InferenceEngine@@QEBAAEBVPort@3@XZ
?getOutputPort@ConcatLayer@Builder@InferenceEngine@@QEBAAEBVPort@3@XZ
?getOutputPort@ConvolutionLayer@Builder@InferenceEngine@@QEBAAEBVPort@3@XZ
?getOutputPort@CropLayer@Builder@InferenceEngine@@QEBAAEBVPort@3@XZ
?getOutputPort@DetectionOutputLayer@Builder@InferenceEngine@@QEBAAEBVPort@3@XZ
?getOutputPort@EltwiseLayer@Builder@InferenceEngine@@QEBAAEBVPort@3@XZ
?getOutputPort@FullyConnectedLayer@Builder@InferenceEngine@@QEBAAEBVPort@3@XZ
?getOutputPort@MemoryLayer@Builder@InferenceEngine@@QEBAAEBVPort@3@XZ
?getOutputPort@PSROIPoolingLayer@Builder@InferenceEngine@@QEBAAEBVPort@3@XZ
?getOutputPort@PermuteLayer@Builder@InferenceEngine@@QEBAAEBVPort@3@XZ
?getOutputPort@PoolingLayer@Builder@InferenceEngine@@QEBAAEBVPort@3@XZ
?getOutputPort@PriorBoxClusteredLayer@Builder@InferenceEngine@@QEBAAEBVPort@3@XZ
?getOutputPort@PriorBoxLayer@Builder@InferenceEngine@@QEBAAEBVPort@3@XZ
?getOutputPort@ProposalLayer@Builder@InferenceEngine@@QEBAAEBVPort@3@XZ
?getOutputPort@ROIPoolingLayer@Builder@InferenceEngine@@QEBAAEBVPort@3@XZ
?getOutputPort@RegionYoloLayer@Builder@InferenceEngine@@QEBAAEBVPort@3@XZ
?getOutputPort@ReorgYoloLayer@Builder@InferenceEngine@@QEBAAEBVPort@3@XZ
?getOutputPort@ResampleLayer@Builder@InferenceEngine@@QEBAAEBVPort@3@XZ
?getOutputPort@ReshapeLayer@Builder@InferenceEngine@@QEBAAEBVPort@3@XZ
?getOutputPort@SimplerNMSLayer@Builder@InferenceEngine@@QEBAAEBVPort@3@XZ
?getOutputPort@TileLayer@Builder@InferenceEngine@@QEBAAEBVPort@3@XZ
?getOutputPorts@GRUSequenceLayer@Builder@InferenceEngine@@QEBAAEBV?$vector@VPort@InferenceEngine@@V?$allocator@VPort@InferenceEngine@@@std@@@std@@XZ
?getOutputPorts@LSTMSequenceLayer@Builder@InferenceEngine@@QEBAAEBV?$vector@VPort@InferenceEngine@@V?$allocator@VPort@InferenceEngine@@@std@@@std@@XZ
?getOutputPorts@Layer@Builder@InferenceEngine@@QEAAAEAV?$vector@VPort@InferenceEngine@@V?$allocator@VPort@InferenceEngine@@@std@@@std@@XZ
?getOutputPorts@Layer@Builder@InferenceEngine@@UEBAAEBV?$vector@VPort@InferenceEngine@@V?$allocator@VPort@InferenceEngine@@@std@@@std@@XZ
?getOutputPorts@RNNSequenceLayer@Builder@InferenceEngine@@QEBAAEBV?$vector@VPort@InferenceEngine@@V?$allocator@VPort@InferenceEngine@@@std@@@std@@XZ
?getOutputPorts@SplitLayer@Builder@InferenceEngine@@QEBAAEBV?$vector@VPort@InferenceEngine@@V?$allocator@VPort@InferenceEngine@@@std@@@std@@XZ
?getOutputs@Network@Builder@InferenceEngine@@QEAA?AV?$vector@V?$shared_ptr@VLayer@Builder@InferenceEngine@@@std@@V?$allocator@V?$shared_ptr@VLayer@Builder@InferenceEngine@@@std@@@2@@std@@XZ
?getOutputs@Network@Builder@InferenceEngine@@UEBA?BV?$vector@V?$shared_ptr@$$CBVILayer@InferenceEngine@@@std@@V?$allocator@V?$shared_ptr@$$CBVILayer@InferenceEngine@@@std@@@2@@std@@XZ
?getOutputsInfo@CNNNetworkImpl@details@InferenceEngine@@UEBAXAEAV?$map@V?$basic_string@DU?$char_traits@D@std@@V?$allocator@D@2@@std@@V?$shared_ptr@VData@InferenceEngine@@@2@U?$less@V?$basic_string@DU?$char_traits@D@std@@V?$allocator@D@2@@std@@@2@V?$allocator@U?$pair@$$CBV?$basic_string@DU?$char_traits@D@std@@V?$allocator@D@2@@std@@V?$shared_ptr@VData@InferenceEngine@@@2@@std@@@2@@std@@@Z
?getPaddingsBegin@ConvolutionLayer@Builder@InferenceEngine@@QEBA?BV?$vector@_KV?$allocator@_K@std@@@std@@XZ
?getPaddingsBegin@PoolingLayer@Builder@InferenceEngine@@QEBA?BV?$vector@_KV?$allocator@_K@std@@@std@@XZ
?getPaddingsEnd@ConvolutionLayer@Builder@InferenceEngine@@QEBA?BV?$vector@_KV?$allocator@_K@std@@@std@@XZ
?getPaddingsEnd@PoolingLayer@Builder@InferenceEngine@@QEBA?BV?$vector@_KV?$allocator@_K@std@@@std@@XZ
?getPaddingsImpl@InferenceEngine@@YA?AVPaddings@1@AEBVCNNLayer@1@@Z
?getParameters@Layer@Builder@InferenceEngine@@QEAAAEAV?$map@V?$basic_string@DU?$char_traits@D@std@@V?$allocator@D@2@@std@@VParameter@InferenceEngine@@U?$less@V?$basic_string@DU?$char_traits@D@std@@V?$allocator@D@2@@std@@@2@V?$allocator@U?$pair@$$CBV?$basic_string@DU?$char_traits@D@std@@V?$allocator@D@2@@std@@VParameter@InferenceEngine@@@std@@@2@@std@@XZ
?getParameters@Layer@Builder@InferenceEngine@@UEBAAEBV?$map@V?$basic_string@DU?$char_traits@D@std@@V?$allocator@D@2@@std@@VParameter@InferenceEngine@@U?$less@V?$basic_string@DU?$char_traits@D@std@@V?$allocator@D@2@@std@@@2@V?$allocator@U?$pair@$$CBV?$basic_string@DU?$char_traits@D@std@@V?$allocator@D@2@@std@@VParameter@InferenceEngine@@@std@@@2@@std@@XZ
?getParameters@Port@InferenceEngine@@QEBAAEBV?$map@V?$basic_string@DU?$char_traits@D@std@@V?$allocator@D@2@@std@@VParameter@InferenceEngine@@U?$less@V?$basic_string@DU?$char_traits@D@std@@V?$allocator@D@2@@std@@@2@V?$allocator@U?$pair@$$CBV?$basic_string@DU?$char_traits@D@std@@V?$allocator@D@2@@std@@VParameter@InferenceEngine@@@std@@@2@@std@@XZ
?getParameters@PortData@InferenceEngine@@QEBAAEBV?$map@V?$basic_string@DU?$char_traits@D@std@@V?$allocator@D@2@@std@@VParameter@InferenceEngine@@U?$less@V?$basic_string@DU?$char_traits@D@std@@V?$allocator@D@2@@std@@@2@V?$allocator@U?$pair@$$CBV?$basic_string@DU?$char_traits@D@std@@V?$allocator@D@2@@std@@VParameter@InferenceEngine@@@std@@@2@@std@@XZ
?getPluginByDevice@PluginDispatcher@InferenceEngine@@QEBA?AVInferencePlugin@2@AEBV?$basic_string@DU?$char_traits@D@std@@V?$allocator@D@2@@std@@@Z
?getPluginByName@PluginDispatcher@InferenceEngine@@UEBA?AVInferencePlugin@2@AEBV?$basic_string@DU?$char_traits@D@std@@V?$allocator@D@2@@std@@@Z
?getPooled@ROIPoolingLayer@Builder@InferenceEngine@@QEBA?BV?$vector@HV?$allocator@H@std@@@std@@XZ
?getPoolingType@PoolingLayer@Builder@InferenceEngine@@QEBA?AW4PoolingType@123@XZ
?getPort@ArgMaxLayer@Builder@InferenceEngine@@QEBAAEBVPort@3@XZ
?getPort@BatchNormalizationLayer@Builder@InferenceEngine@@QEBAAEBVPort@3@XZ
?getPort@ClampLayer@Builder@InferenceEngine@@QEBAAEBVPort@3@XZ
?getPort@ConstLayer@Builder@InferenceEngine@@QEBAAEBVPort@3@XZ
?getPort@ELULayer@Builder@InferenceEngine@@QEBAAEBVPort@3@XZ
?getPort@GRNLayer@Builder@InferenceEngine@@QEBAAEBVPort@3@XZ
?getPort@InputLayer@Builder@InferenceEngine@@QEBAAEBVPort@3@XZ
?getPort@LRNLayer@Builder@InferenceEngine@@QEBAAEBVPort@3@XZ
?getPort@MVNLayer@Builder@InferenceEngine@@QEBAAEBVPort@3@XZ
?getPort@NormLayer@Builder@InferenceEngine@@QEBAAEBVPort@3@XZ
?getPort@NormalizeLayer@Builder@InferenceEngine@@QEBAAEBVPort@3@XZ
?getPort@OutputLayer@Builder@InferenceEngine@@QEBAAEBVPort@3@XZ
?getPort@PReLULayer@Builder@InferenceEngine@@QEBAAEBVPort@3@XZ
?getPort@PowerLayer@Builder@InferenceEngine@@QEBAAEBVPort@3@XZ
?getPort@ReLU6Layer@Builder@InferenceEngine@@QEBAAEBVPort@3@XZ
?getPort@ReLULayer@Builder@InferenceEngine@@QEBAAEBVPort@3@XZ
?getPort@ScaleShiftLayer@Builder@InferenceEngine@@QEBAAEBVPort@3@XZ
?getPort@SigmoidLayer@Builder@InferenceEngine@@QEBAAEBVPort@3@XZ
?getPort@SoftMaxLayer@Builder@InferenceEngine@@QEBAAEBVPort@3@XZ
?getPort@TanHLayer@Builder@InferenceEngine@@QEBAAEBVPort@3@XZ
?getPostNMSTopN@ProposalLayer@Builder@InferenceEngine@@QEBA_KXZ
?getPostNMSTopN@SimplerNMSLayer@Builder@InferenceEngine@@QEBA_KXZ
?getPower@PowerLayer@Builder@InferenceEngine@@QEBAMXZ
?getPreNMSTopN@ProposalLayer@Builder@InferenceEngine@@QEBA_KXZ
?getPreNMSTopN@SimplerNMSLayer@Builder@InferenceEngine@@QEBA_KXZ
?getPrecision@CNNNetworkImpl@details@InferenceEngine@@UEBA?AVPrecision@3@XZ
?getPrecision@Data@InferenceEngine@@QEBAAEBVPrecision@2@XZ
?getPrecision@TensorDesc@InferenceEngine@@QEBAAEBVPrecision@2@XZ
?getRatio@ProposalLayer@Builder@InferenceEngine@@QEBA?BV?$vector@MV?$allocator@M@std@@@std@@XZ
?getRegion@NormLayer@Builder@InferenceEngine@@QEBA?AW4NormType@123@XZ
?getResampleType@ResampleLayer@Builder@InferenceEngine@@QEBAAEBV?$basic_string@DU?$char_traits@D@std@@V?$allocator@D@2@@std@@XZ
?getResultShapeFor@Reshaper@ShapeInfer@InferenceEngine@@QEAA?AV?$vector@_KV?$allocator@_K@std@@@std@@AEAV?$shared_ptr@VData@InferenceEngine@@@5@PEAUResponseDesc@3@@Z
?getRoiBlob@PreProcessData@InferenceEngine@@QEBA?AV?$shared_ptr@VBlob@InferenceEngine@@@std@@XZ
?getRootDataObjects@InferenceEngine@@YA?AV?$unordered_set@V?$shared_ptr@VData@InferenceEngine@@@std@@U?$hash@V?$shared_ptr@VData@InferenceEngine@@@std@@@2@U?$equal_to@V?$shared_ptr@VData@InferenceEngine@@@std@@@2@V?$allocator@V?$shared_ptr@VData@InferenceEngine@@@std@@@2@@std@@AEAVICNNNetwork@1@@Z
?getRoundingType@PoolingLayer@Builder@InferenceEngine@@QEBA?AW4RoundingType@123@XZ
?getScale@PowerLayer@Builder@InferenceEngine@@QEBAMXZ
?getScale@ProposalLayer@Builder@InferenceEngine@@QEBA?BV?$vector@MV?$allocator@M@std@@@std@@XZ
?getScale@SimplerNMSLayer@Builder@InferenceEngine@@QEBA_KXZ
?getScaleAllSizes@PriorBoxLayer@Builder@InferenceEngine@@QEBA_NXZ
?getScales@EltwiseLayer@Builder@InferenceEngine@@QEBA?BV?$vector@MV?$allocator@M@std@@@std@@XZ
?getSequenceDim@GRUSequenceLayer@Builder@InferenceEngine@@QEBA_NXZ
?getSequenceDim@LSTMSequenceLayer@Builder@InferenceEngine@@QEBA_NXZ
?getSequenceDim@RNNSequenceLayer@Builder@InferenceEngine@@QEBA_NXZ
?getShapeInferImpl@BuiltInShapeInferHolder@ShapeInfer@InferenceEngine@@UEAA?AW4StatusCode@3@AEAV?$shared_ptr@VIShapeInferImpl@InferenceEngine@@@std@@PEBDPEAUResponseDesc@3@@Z
?getShapeInferImpl@Context@InferenceEngine@@QEAA?AV?$shared_ptr@VIShapeInferImpl@InferenceEngine@@@std@@AEBV?$basic_string@DU?$char_traits@D@std@@V?$allocator@D@2@@4@@Z
?getShapeInferTypes@BuiltInShapeInferHolder@ShapeInfer@InferenceEngine@@UEAA?AW4StatusCode@3@AEAPEAPEADAEAIPEAUResponseDesc@3@@Z
?getShareLocation@DetectionOutputLayer@Builder@InferenceEngine@@QEBA_NXZ
?getShift@PowerLayer@Builder@InferenceEngine@@QEBAMXZ
?getSize@LRNLayer@Builder@InferenceEngine@@QEBA_KXZ
?getSize@MemoryLayer@Builder@InferenceEngine@@QEBA_KXZ
?getSize@NormLayer@Builder@InferenceEngine@@QEBA_KXZ
?getSpatialScale@PSROIPoolingLayer@Builder@InferenceEngine@@QEBAMXZ
?getSpatialScale@ROIPoolingLayer@Builder@InferenceEngine@@QEBAMXZ
?getStage@StagedTask@InferenceEngine@@QEAA_KXZ
?getStats@CNNNetworkImpl@details@InferenceEngine@@UEBA?AW4StatusCode@3@PEAPEAVICNNNetworkStats@3@PEAUResponseDesc@3@@Z
?getStatus@Task@InferenceEngine@@QEAA?AW4Status@12@XZ
?getStep@PriorBoxClusteredLayer@Builder@InferenceEngine@@QEBAMXZ
?getStep@PriorBoxLayer@Builder@InferenceEngine@@QEBAMXZ
?getSteps@PriorBoxClusteredLayer@Builder@InferenceEngine@@QEBA?BV?$vector@MV?$allocator@M@std@@@std@@XZ
?getStride@ReorgYoloLayer@Builder@InferenceEngine@@QEBAHXZ
?getStrides@BlockingDesc@InferenceEngine@@QEBAAEBV?$vector@_KV?$allocator@_K@std@@@std@@XZ
?getStrides@ConvolutionLayer@Builder@InferenceEngine@@QEBA?BV?$vector@_KV?$allocator@_K@std@@@std@@XZ
?getStrides@PoolingLayer@Builder@InferenceEngine@@QEBA?BV?$vector@_KV?$allocator@_K@std@@@std@@XZ
?getSuitablePlugin@PluginDispatcher@InferenceEngine@@QEBA?AV?$SOPointer@VIInferencePlugin@InferenceEngine@@VSharedObjectLoader@details@2@@details@2@W4TargetDevice@2@@Z
?getTargetDevice@CNNNetworkImpl@details@InferenceEngine@@UEBA?AW4TargetDevice@3@XZ
?getTensorDesc@Data@InferenceEngine@@QEBAAEBVTensorDesc@2@XZ
?getTiles@TileLayer@Builder@InferenceEngine@@QEBA_KXZ
?getTopK@ArgMaxLayer@Builder@InferenceEngine@@QEBA_KXZ
?getTopK@DetectionOutputLayer@Builder@InferenceEngine@@QEBAHXZ
?getType@Layer@Builder@InferenceEngine@@UEBAAEBV?$basic_string@DU?$char_traits@D@std@@V?$allocator@D@2@@std@@XZ
?getType@LayerDecorator@Builder@InferenceEngine@@QEBAAEBV?$basic_string@DU?$char_traits@D@std@@V?$allocator@D@2@@std@@XZ
?getTypeNamesFromExtension@Reshaper@ShapeInfer@InferenceEngine@@AEAA?AV?$set@V?$basic_string@DU?$char_traits@D@std@@V?$allocator@D@2@@std@@V?$CaselessLess@V?$basic_string@DU?$char_traits@D@std@@V?$allocator@D@2@@std@@@details@InferenceEngine@@V?$allocator@V?$basic_string@DU?$char_traits@D@std@@V?$allocator@D@2@@std@@@2@@std@@AEBV?$shared_ptr@VIShapeInferExtension@InferenceEngine@@@5@@Z
?getUserObject@Data@InferenceEngine@@QEBAAEBTUserValue@2@XZ
?getValidatorsHolder@Layer@Builder@InferenceEngine@@CA?AV?$shared_ptr@UValidatorsHolder@Builder@InferenceEngine@@@std@@XZ
?getVariance@PriorBoxClusteredLayer@Builder@InferenceEngine@@QEBAMXZ
?getVariance@PriorBoxLayer@Builder@InferenceEngine@@QEBAMXZ
?getVariantEncodedInTarget@DetectionOutputLayer@Builder@InferenceEngine@@QEBA_NXZ
?getWidth@PriorBoxClusteredLayer@Builder@InferenceEngine@@QEBAMXZ
?getWidth@ResampleLayer@Builder@InferenceEngine@@QEBA_KXZ
?groupSubgraphs@InferenceEngine@@YA?AV?$vector@V?$vector@V?$shared_ptr@VCNNLayer@InferenceEngine@@@std@@V?$allocator@V?$shared_ptr@VCNNLayer@InferenceEngine@@@std@@@2@@std@@V?$allocator@V?$vector@V?$shared_ptr@VCNNLayer@InferenceEngine@@@std@@V?$allocator@V?$shared_ptr@VCNNLayer@InferenceEngine@@@std@@@2@@std@@@2@@std@@AEAVICNNNetwork@1@V?$function@$$A6A_NAEBV?$shared_ptr@VCNNLayer@InferenceEngine@@@std@@0@Z@3@@Z
?ie_memcpy@@YAHPEAX_KPEBX1@Z
?isApplicable@PreProcessData@InferenceEngine@@SAXAEBV?$shared_ptr@VBlob@InferenceEngine@@@std@@0@Z
?isEmpty@CNNNetworkStatsImpl@details@InferenceEngine@@UEBA_NXZ
?isInitialized@Data@InferenceEngine@@QEBA_NXZ
?isNextFusionAllowed@CNNNetworkInt8Normalizer@details@InferenceEngine@@KA_NAEBV?$shared_ptr@VCNNLayer@InferenceEngine@@@std@@@Z
?isOnWait@Task@InferenceEngine@@QEAA_NXZ
?isReLULikeClamp@CNNNetworkInt8Normalizer@details@InferenceEngine@@SA_NV?$shared_ptr@VCNNLayer@InferenceEngine@@@std@@@Z
?isSharedLibrary@FileUtils@@YA_NAEBV?$basic_string@DU?$char_traits@D@std@@V?$allocator@D@2@@std@@@Z
?layerCount@CNNNetworkImpl@details@InferenceEngine@@UEBA_KXZ
?layerProducesFloat@CNNNetworkInt8Normalizer@details@InferenceEngine@@KA_NV?$shared_ptr@VCNNLayer@InferenceEngine@@@std@@@Z
?makePath@FileUtils@@YA?AV?$basic_string@DU?$char_traits@D@std@@V?$allocator@D@2@@std@@AEBV23@0@Z
?make_blob_with_precision@@YA?AV?$shared_ptr@VBlob@InferenceEngine@@@std@@AEBVTensorDesc@InferenceEngine@@@Z
?make_blob_with_precision@@YA?AV?$shared_ptr@VBlob@InferenceEngine@@@std@@AEBVTensorDesc@InferenceEngine@@AEBV?$shared_ptr@VIAllocator@InferenceEngine@@@2@@Z
?make_blob_with_precision@@YA?AV?$shared_ptr@VBlob@InferenceEngine@@@std@@AEBVTensorDesc@InferenceEngine@@PEAX@Z
?make_plain_blob@@YA?AV?$shared_ptr@VBlob@InferenceEngine@@@std@@VPrecision@InferenceEngine@@V?$vector@_KV?$allocator@_K@std@@@2@@Z
?make_plugin_name@PluginDispatcher@InferenceEngine@@IEBA?AV?$basic_string@DU?$char_traits@D@std@@V?$allocator@D@2@@std@@AEBV34@0@Z
?make_shared_blob@InferenceEngine@@YA?AV?$shared_ptr@VBlob@InferenceEngine@@@std@@AEBV23@AEBUROI@1@@Z
?networkShapeInfer@Reshaper@ShapeInfer@InferenceEngine@@AEAA?AW4StatusCode@3@AEBV?$map@V?$basic_string@DU?$char_traits@D@std@@V?$allocator@D@2@@std@@V?$vector@_KV?$allocator@_K@std@@@2@U?$less@V?$basic_string@DU?$char_traits@D@std@@V?$allocator@D@2@@std@@@2@V?$allocator@U?$pair@$$CBV?$basic_string@DU?$char_traits@D@std@@V?$allocator@D@2@@std@@V?$vector@_KV?$allocator@_K@std@@@2@@std@@@2@@std@@PEAUResponseDesc@3@@Z
?occupy@Task@InferenceEngine@@QEAA_NXZ
?offset@TensorDesc@InferenceEngine@@QEBA_KAEBV?$vector@_KV?$allocator@_K@std@@@std@@@Z
?offset@TensorDesc@InferenceEngine@@QEBA_K_K@Z
?read@IRReader@InferenceEngine@@QEAA?AV?$shared_ptr@VFunction@ngraph@@@std@@AEBV?$basic_string@DU?$char_traits@D@std@@V?$allocator@D@2@@4@0@Z
?read@IRReader@InferenceEngine@@QEAA?AV?$shared_ptr@VFunction@ngraph@@@std@@AEBV?$basic_string@DU?$char_traits@D@std@@V?$allocator@D@2@@4@@Z
?read@IRReader@InferenceEngine@@QEAA?AV?$shared_ptr@VFunction@ngraph@@@std@@AEBV?$basic_string@DU?$char_traits@D@std@@V?$allocator@D@2@@4@AEBV?$shared_ptr@$$CBVBlob@InferenceEngine@@@4@@Z
?readAllFile@FileUtils@@YAXAEBV?$basic_string@DU?$char_traits@D@std@@V?$allocator@D@2@@std@@PEAX_K@Z
?readXml@IRReader@InferenceEngine@@AEAA?AV?$shared_ptr@VFunction@ngraph@@@std@@AEBVxml_document@pugi@@AEBV?$shared_ptr@$$CBVBlob@InferenceEngine@@@4@@Z
?removeData@CNNNetworkImpl@details@InferenceEngine@@QEAAXAEBV?$basic_string@DU?$char_traits@D@std@@V?$allocator@D@2@@std@@@Z
?removeInputInfo@CNNNetworkImpl@details@InferenceEngine@@QEAAXAEBV?$basic_string@DU?$char_traits@D@std@@V?$allocator@D@2@@std@@@Z
?removeLayer@CNNNetworkImpl@details@InferenceEngine@@QEAAXAEBV?$basic_string@DU?$char_traits@D@std@@V?$allocator@D@2@@std@@@Z
?removeLayer@Network@Builder@InferenceEngine@@QEAAX_K@Z
?replaceScaleShiftByDWConvolution@CNNNetworkInt8Normalizer@details@InferenceEngine@@KAXAEAVCNNNetwork@3@@Z
?resetStages@StagedTask@InferenceEngine@@QEAAXXZ
?reshape@CNNNetworkImpl@details@InferenceEngine@@UEAA?AW4StatusCode@3@AEBV?$map@V?$basic_string@DU?$char_traits@D@std@@V?$allocator@D@2@@std@@V?$vector@_KV?$allocator@_K@std@@@2@U?$less@V?$basic_string@DU?$char_traits@D@std@@V?$allocator@D@2@@std@@@2@V?$allocator@U?$pair@$$CBV?$basic_string@DU?$char_traits@D@std@@V?$allocator@D@2@@std@@V?$vector@_KV?$allocator@_K@std@@@2@@std@@@2@@std@@PEAUResponseDesc@3@@Z
?reshape@Data@InferenceEngine@@QEAAXAEBV?$vector@_KV?$allocator@_K@std@@@std@@W4Layout@2@@Z
?reshape@TensorDesc@InferenceEngine@@QEAAXAEBV?$vector@_KV?$allocator@_K@std@@@std@@AEBVBlockingDesc@2@@Z
?reshape@TensorDesc@InferenceEngine@@QEAAXAEBV?$vector@_KV?$allocator@_K@std@@@std@@W4Layout@2@@Z
?resolveOutput@CNNNetworkImpl@details@InferenceEngine@@QEAAXXZ
?returnTailToFP32@CNNNetworkInt8Normalizer@details@InferenceEngine@@KAXV?$shared_ptr@VCNNLayer@InferenceEngine@@@std@@@Z
?run@Reshaper@ShapeInfer@InferenceEngine@@QEAA?AW4StatusCode@3@AEBV?$map@V?$basic_string@DU?$char_traits@D@std@@V?$allocator@D@2@@std@@V?$vector@_KV?$allocator@_K@std@@@2@U?$less@V?$basic_string@DU?$char_traits@D@std@@V?$allocator@D@2@@std@@@2@V?$allocator@U?$pair@$$CBV?$basic_string@DU?$char_traits@D@std@@V?$allocator@D@2@@std@@V?$vector@_KV?$allocator@_K@std@@@2@@std@@@2@@std@@PEAUResponseDesc@3@@Z
?runNoApply@Reshaper@ShapeInfer@InferenceEngine@@QEAA?AW4StatusCode@3@AEBV?$map@V?$basic_string@DU?$char_traits@D@std@@V?$allocator@D@2@@std@@V?$vector@_KV?$allocator@_K@std@@@2@U?$less@V?$basic_string@DU?$char_traits@D@std@@V?$allocator@D@2@@std@@@2@V?$allocator@U?$pair@$$CBV?$basic_string@DU?$char_traits@D@std@@V?$allocator@D@2@@std@@V?$vector@_KV?$allocator@_K@std@@@2@@std@@@2@@std@@PEAUResponseDesc@3@@Z
?runNoThrowNoBusyCheck@StagedTask@InferenceEngine@@UEAA?AW4Status@Task@2@XZ
?runNoThrowNoBusyCheck@Task@InferenceEngine@@UEAA?AW4Status@12@XZ
?runWithSynchronizer@Task@InferenceEngine@@QEAA?AW4Status@12@AEAV?$shared_ptr@VTaskSynchronizer@InferenceEngine@@@std@@@Z
?saveGraphToDot@InferenceEngine@@YAXAEAVICNNNetwork@1@AEAV?$basic_ostream@DU?$char_traits@D@std@@@std@@V?$function@$$A6AXV?$shared_ptr@VCNNLayer@InferenceEngine@@@std@@AEAV?$vector@U?$pair@V?$basic_string@DU?$char_traits@D@std@@V?$allocator@D@2@@std@@V12@@std@@V?$allocator@U?$pair@V?$basic_string@DU?$char_traits@D@std@@V?$allocator@D@2@@std@@V12@@std@@@2@@2@1@Z@4@@Z
?serialize@CNNNetworkImpl@details@InferenceEngine@@UEBA?AW4StatusCode@3@AEBV?$basic_string@DU?$char_traits@D@std@@V?$allocator@D@2@@std@@0PEAUResponseDesc@3@@Z
?setAcrossChannels@MVNLayer@Builder@InferenceEngine@@QEAAAEAV123@_N@Z
?setAcrossMaps@NormLayer@Builder@InferenceEngine@@QEAAAEAV123@_N@Z
?setAcrossMaps@NormalizeLayer@Builder@InferenceEngine@@QEAAAEAV123@_N@Z
?setActivations@GRUSequenceLayer@Builder@InferenceEngine@@QEAAAEAV123@AEBV?$vector@V?$basic_string@DU?$char_traits@D@std@@V?$allocator@D@2@@std@@V?$allocator@V?$basic_string@DU?$char_traits@D@std@@V?$allocator@D@2@@std@@@2@@std@@@Z
?setActivations@LSTMSequenceLayer@Builder@InferenceEngine@@QEAAAEAV123@AEBV?$vector@V?$basic_string@DU?$char_traits@D@std@@V?$allocator@D@2@@std@@V?$allocator@V?$basic_string@DU?$char_traits@D@std@@V?$allocator@D@2@@std@@@2@@std@@@Z
?setActivations@RNNSequenceLayer@Builder@InferenceEngine@@QEAAAEAV123@AEBV?$vector@V?$basic_string@DU?$char_traits@D@std@@V?$allocator@D@2@@std@@V?$allocator@V?$basic_string@DU?$char_traits@D@std@@V?$allocator@D@2@@std@@@2@@std@@@Z
?setActivationsAlpha@GRUSequenceLayer@Builder@InferenceEngine@@QEAAAEAV123@AEBV?$vector@MV?$allocator@M@std@@@std@@@Z
?setActivationsAlpha@LSTMSequenceLayer@Builder@InferenceEngine@@QEAAAEAV123@AEBV?$vector@MV?$allocator@M@std@@@std@@@Z
?setActivationsAlpha@RNNSequenceLayer@Builder@InferenceEngine@@QEAAAEAV123@AEBV?$vector@MV?$allocator@M@std@@@std@@@Z
?setActivationsBeta@GRUSequenceLayer@Builder@InferenceEngine@@QEAAAEAV123@AEBV?$vector@MV?$allocator@M@std@@@std@@@Z
?setActivationsBeta@LSTMSequenceLayer@Builder@InferenceEngine@@QEAAAEAV123@AEBV?$vector@MV?$allocator@M@std@@@std@@@Z
?setActivationsBeta@RNNSequenceLayer@Builder@InferenceEngine@@QEAAAEAV123@AEBV?$vector@MV?$allocator@M@std@@@std@@@Z
?setAlpha@ELULayer@Builder@InferenceEngine@@QEAAAEAV123@M@Z
?setAlpha@LRNLayer@Builder@InferenceEngine@@QEAAAEAV123@M@Z
?setAlpha@NormLayer@Builder@InferenceEngine@@QEAAAEAV123@M@Z
?setAnchors@RegionYoloLayer@Builder@InferenceEngine@@QEAAAEAV123@M@Z
?setAntialias@ResampleLayer@Builder@InferenceEngine@@QEAAAEAV123@_N@Z
?setAspectRatio@PriorBoxLayer@Builder@InferenceEngine@@QEAAAEAV123@AEBV?$vector@_KV?$allocator@_K@std@@@std@@@Z
?setAxis@ArgMaxLayer@Builder@InferenceEngine@@QEAAAEAV123@H@Z
?setAxis@ConcatLayer@Builder@InferenceEngine@@QEAAAEAV123@_K@Z
?setAxis@CropLayer@Builder@InferenceEngine@@QEAAAEAV123@AEBV?$vector@_KV?$allocator@_K@std@@@std@@@Z
?setAxis@RegionYoloLayer@Builder@InferenceEngine@@QEAAAEAV123@_K@Z
?setAxis@SoftMaxLayer@Builder@InferenceEngine@@QEAAAEAV123@_K@Z
?setAxis@SplitLayer@Builder@InferenceEngine@@QEAAAEAV123@_K@Z
?setAxis@TileLayer@Builder@InferenceEngine@@QEAAAEAV123@_K@Z
?setBackgroudLabelId@DetectionOutputLayer@Builder@InferenceEngine@@QEAAAEAV123@H@Z
?setBaseSize@ProposalLayer@Builder@InferenceEngine@@QEAAAEAV123@_K@Z
?setBatchSize@CNNNetworkImpl@details@InferenceEngine@@UEAA?AW4StatusCode@3@_KPEAUResponseDesc@3@@Z
?setBatchSize@Data@InferenceEngine@@QEAAX_K@Z
?setBatchSizeReshape@CNNNetworkImpl@details@InferenceEngine@@QEAA?AW4StatusCode@3@_KPEAUResponseDesc@3@@Z
?setBeta@GRNLayer@Builder@InferenceEngine@@QEAAAEAV123@M@Z
?setBeta@LRNLayer@Builder@InferenceEngine@@QEAAAEAV123@M@Z
?setBeta@NormLayer@Builder@InferenceEngine@@QEAAAEAV123@M@Z
?setBias@LRNLayer@Builder@InferenceEngine@@QEAAAEAV123@M@Z
?setCLSThreshold@SimplerNMSLayer@Builder@InferenceEngine@@QEAAAEAV123@M@Z
?setCTCMergeRepeated@CTCGreedyDecoderLayer@Builder@InferenceEngine@@QEAAAEAV123@_N@Z
?setChannelShared@NormalizeLayer@Builder@InferenceEngine@@QEAAAEAV123@_N@Z
?setChannelShared@PReLULayer@Builder@InferenceEngine@@QEAAAEAV123@_N@Z
?setClasses@RegionYoloLayer@Builder@InferenceEngine@@QEAAAEAV123@H@Z
?setClip@GRUSequenceLayer@Builder@InferenceEngine@@QEAAAEAV123@M@Z
?setClip@LSTMSequenceLayer@Builder@InferenceEngine@@QEAAAEAV123@M@Z
?setClip@PriorBoxClusteredLayer@Builder@InferenceEngine@@QEAAAEAV123@_N@Z
?setClip@PriorBoxLayer@Builder@InferenceEngine@@QEAAAEAV123@_N@Z
?setCodeType@DetectionOutputLayer@Builder@InferenceEngine@@QEAAAEAV123@V?$basic_string@DU?$char_traits@D@std@@V?$allocator@D@2@@std@@@Z
?setConfidenceThreshold@DetectionOutputLayer@Builder@InferenceEngine@@QEAAAEAV123@M@Z
?setCoords@RegionYoloLayer@Builder@InferenceEngine@@QEAAAEAV123@H@Z
?setData@ConstLayer@Builder@InferenceEngine@@QEAAAEAV123@AEBV?$shared_ptr@$$CBVBlob@InferenceEngine@@@std@@@Z
?setData@Port@InferenceEngine@@QEAAXAEBV?$shared_ptr@VPortData@InferenceEngine@@@std@@@Z
?setData@PortData@InferenceEngine@@QEAAXAEBV?$shared_ptr@VBlob@InferenceEngine@@@std@@@Z
?setDeformableGroup@DeformableConvolutionLayer@Builder@InferenceEngine@@QEAAAEAV123@_K@Z
?setDilation@ConvolutionLayer@Builder@InferenceEngine@@QEAAAEAV123@AEBV?$vector@_KV?$allocator@_K@std@@@std@@@Z
?setDims@Data@InferenceEngine@@QEAAXAEBV?$vector@_KV?$allocator@_K@std@@@std@@@Z
?setDims@ReshapeLayer@Builder@InferenceEngine@@QEAAAEAV123@AEBV?$vector@HV?$allocator@H@std@@@std@@@Z
?setDims@TensorDesc@InferenceEngine@@QEAAXAEBV?$vector@_KV?$allocator@_K@std@@@std@@@Z
?setDirection@GRUSequenceLayer@Builder@InferenceEngine@@QEAAAEAV123@AEBV?$basic_string@DU?$char_traits@D@std@@V?$allocator@D@2@@std@@@Z
?setDirection@LSTMSequenceLayer@Builder@InferenceEngine@@QEAAAEAV123@AEBV?$basic_string@DU?$char_traits@D@std@@V?$allocator@D@2@@std@@@Z
?setDoSoftMax@RegionYoloLayer@Builder@InferenceEngine@@QEAAAEAV123@_N@Z
?setEltwiseType@EltwiseLayer@Builder@InferenceEngine@@QEAAAEAV123@W4EltwiseType@123@@Z
?setEndAxis@RegionYoloLayer@Builder@InferenceEngine@@QEAAAEAV123@_K@Z
?setEpsilon@BatchNormalizationLayer@Builder@InferenceEngine@@QEAAAEAV123@M@Z
?setEpsilon@MVNLayer@Builder@InferenceEngine@@QEAAAEAV123@M@Z
?setEpsilon@NormalizeLayer@Builder@InferenceEngine@@QEAAAEAV123@M@Z
?setExcludePad@PoolingLayer@Builder@InferenceEngine@@QEAAAEAV123@_N@Z
?setFactor@ResampleLayer@Builder@InferenceEngine@@QEAAAEAV123@M@Z
?setFeatStride@ProposalLayer@Builder@InferenceEngine@@QEAAAEAV123@_K@Z
?setFeatStride@SimplerNMSLayer@Builder@InferenceEngine@@QEAAAEAV123@_K@Z
?setFlip@PriorBoxClusteredLayer@Builder@InferenceEngine@@QEAAAEAV123@_N@Z
?setFlip@PriorBoxLayer@Builder@InferenceEngine@@QEAAAEAV123@_N@Z
?setGroup@ConvolutionLayer@Builder@InferenceEngine@@QEAAAEAV123@_K@Z
?setGroupSize@PSROIPoolingLayer@Builder@InferenceEngine@@QEAAAEAV123@_K@Z
?setHeight@PriorBoxClusteredLayer@Builder@InferenceEngine@@QEAAAEAV123@M@Z
?setHeight@ResampleLayer@Builder@InferenceEngine@@QEAAAEAV123@_K@Z
?setHiddenSize@GRUSequenceLayer@Builder@InferenceEngine@@QEAAAEAV123@H@Z
?setHiddenSize@LSTMSequenceLayer@Builder@InferenceEngine@@QEAAAEAV123@H@Z
?setHiddenSize@RNNSequenceLayer@Builder@InferenceEngine@@QEAAAEAV123@H@Z
?setIOUThreshold@SimplerNMSLayer@Builder@InferenceEngine@@QEAAAEAV123@M@Z
?setId@MemoryLayer@Builder@InferenceEngine@@QEAAAEAV123@AEBV?$basic_string@DU?$char_traits@D@std@@V?$allocator@D@2@@std@@@Z
?setImgSizes@PriorBoxClusteredLayer@Builder@InferenceEngine@@QEAAAEAV123@V?$vector@MV?$allocator@M@std@@@std@@@Z
?setIndex@MemoryLayer@Builder@InferenceEngine@@QEAAAEAV123@_K@Z
?setInputForget@LSTMSequenceLayer@Builder@InferenceEngine@@QEAAAEAV123@_N@Z
?setInputInfo@CNNNetworkImpl@details@InferenceEngine@@QEAAXV?$shared_ptr@VInputInfo@InferenceEngine@@@std@@@Z
?setInputPort@ConvolutionLayer@Builder@InferenceEngine@@QEAAAEAV123@AEBVPort@3@@Z
?setInputPort@FullyConnectedLayer@Builder@InferenceEngine@@QEAAAEAV123@AEBVPort@3@@Z
?setInputPort@MemoryLayer@Builder@InferenceEngine@@QEAAAEAV123@AEBVPort@3@@Z
?setInputPort@PermuteLayer@Builder@InferenceEngine@@QEAAAEAV123@AEBVPort@3@@Z
?setInputPort@PoolingLayer@Builder@InferenceEngine@@QEAAAEAV123@AEBVPort@3@@Z
?setInputPort@RegionYoloLayer@Builder@InferenceEngine@@QEAAAEAV123@AEBVPort@3@@Z
?setInputPort@ReorgYoloLayer@Builder@InferenceEngine@@QEAAAEAV123@AEBVPort@3@@Z
?setInputPort@ResampleLayer@Builder@InferenceEngine@@QEAAAEAV123@AEBVPort@3@@Z
?setInputPort@ReshapeLayer@Builder@InferenceEngine@@QEAAAEAV123@AEBVPort@3@@Z
?setInputPort@SplitLayer@Builder@InferenceEngine@@QEAAAEAV123@AEBVPort@3@@Z
?setInputPort@TileLayer@Builder@InferenceEngine@@QEAAAEAV123@AEBVPort@3@@Z
?setInputPorts@CTCGreedyDecoderLayer@Builder@InferenceEngine@@QEAAAEAV123@AEBV?$vector@VPort@InferenceEngine@@V?$allocator@VPort@InferenceEngine@@@std@@@std@@@Z
?setInputPorts@ConcatLayer@Builder@InferenceEngine@@QEAAAEAV123@AEBV?$vector@VPort@InferenceEngine@@V?$allocator@VPort@InferenceEngine@@@std@@@std@@@Z
?setInputPorts@CropLayer@Builder@InferenceEngine@@QEAAAEAV123@AEBV?$vector@VPort@InferenceEngine@@V?$allocator@VPort@InferenceEngine@@@std@@@std@@@Z
?setInputPorts@DetectionOutputLayer@Builder@InferenceEngine@@QEAAAEAV123@AEBV?$vector@VPort@InferenceEngine@@V?$allocator@VPort@InferenceEngine@@@std@@@std@@@Z
?setInputPorts@EltwiseLayer@Builder@InferenceEngine@@QEAAAEAV123@AEBV?$vector@VPort@InferenceEngine@@V?$allocator@VPort@InferenceEngine@@@std@@@std@@@Z
?setInputPorts@GRUSequenceLayer@Builder@InferenceEngine@@QEAAAEAV123@AEBV?$vector@VPort@InferenceEngine@@V?$allocator@VPort@InferenceEngine@@@std@@@std@@@Z
?setInputPorts@LSTMSequenceLayer@Builder@InferenceEngine@@QEAAAEAV123@AEBV?$vector@VPort@InferenceEngine@@V?$allocator@VPort@InferenceEngine@@@std@@@std@@@Z
?setInputPorts@Layer@Builder@InferenceEngine@@QEAAAEAV123@AEBV?$vector@VPort@InferenceEngine@@V?$allocator@VPort@InferenceEngine@@@std@@@std@@@Z
?setInputPorts@PSROIPoolingLayer@Builder@InferenceEngine@@QEAAAEAV123@AEBV?$vector@VPort@InferenceEngine@@V?$allocator@VPort@InferenceEngine@@@std@@@std@@@Z
?setInputPorts@PriorBoxClusteredLayer@Builder@InferenceEngine@@QEAAAEAV123@AEBV?$vector@VPort@InferenceEngine@@V?$allocator@VPort@InferenceEngine@@@std@@@std@@@Z
?setInputPorts@PriorBoxLayer@Builder@InferenceEngine@@QEAAAEAV123@AEBV?$vector@VPort@InferenceEngine@@V?$allocator@VPort@InferenceEngine@@@std@@@std@@@Z
?setInputPorts@ProposalLayer@Builder@InferenceEngine@@QEAAAEAV123@AEBV?$vector@VPort@InferenceEngine@@V?$allocator@VPort@InferenceEngine@@@std@@@std@@@Z
?setInputPorts@RNNSequenceLayer@Builder@InferenceEngine@@QEAAAEAV123@AEBV?$vector@VPort@InferenceEngine@@V?$allocator@VPort@InferenceEngine@@@std@@@std@@@Z
?setInputPorts@ROIPoolingLayer@Builder@InferenceEngine@@QEAAAEAV123@AEBV?$vector@VPort@InferenceEngine@@V?$allocator@VPort@InferenceEngine@@@std@@@std@@@Z
?setInputPorts@SimplerNMSLayer@Builder@InferenceEngine@@QEAAAEAV123@AEBV?$vector@VPort@InferenceEngine@@V?$allocator@VPort@InferenceEngine@@@std@@@std@@@Z
?setInterpolateOrientation@DetectionOutputLayer@Builder@InferenceEngine@@QEAAAEAV123@H@Z
?setKeepTopK@DetectionOutputLayer@Builder@InferenceEngine@@QEAAAEAV123@H@Z
?setKernel@ConvolutionLayer@Builder@InferenceEngine@@QEAAAEAV123@AEBV?$vector@_KV?$allocator@_K@std@@@std@@@Z
?setKernel@PoolingLayer@Builder@InferenceEngine@@QEAAAEAV123@AEBV?$vector@_KV?$allocator@_K@std@@@std@@@Z
?setLayout@Data@InferenceEngine@@QEAAXW4Layout@2@@Z
?setLayout@TensorDesc@InferenceEngine@@QEAAXW4Layout@2@@Z
?setLinearBeforeReset@GRUSequenceLayer@Builder@InferenceEngine@@QEAAAEAV123@_N@Z
?setMask@RegionYoloLayer@Builder@InferenceEngine@@QEAAAEAV123@H@Z
?setMaxSize@PriorBoxLayer@Builder@InferenceEngine@@QEAAAEAV123@_K@Z
?setMaxValue@ClampLayer@Builder@InferenceEngine@@QEAAAEAV123@M@Z
?setMinBoxSize@SimplerNMSLayer@Builder@InferenceEngine@@QEAAAEAV123@_K@Z
?setMinSize@PriorBoxLayer@Builder@InferenceEngine@@QEAAAEAV123@_K@Z
?setMinSize@ProposalLayer@Builder@InferenceEngine@@QEAAAEAV123@_K@Z
?setMinValue@ClampLayer@Builder@InferenceEngine@@QEAAAEAV123@M@Z
?setN@ReLU6Layer@Builder@InferenceEngine@@QEAAAEAV123@M@Z
?setNMSThresh@ProposalLayer@Builder@InferenceEngine@@QEAAAEAV123@M@Z
?setNMSThreshold@DetectionOutputLayer@Builder@InferenceEngine@@QEAAAEAV123@M@Z
?setName@ArgMaxLayer@Builder@InferenceEngine@@QEAAAEAV123@AEBV?$basic_string@DU?$char_traits@D@std@@V?$allocator@D@2@@std@@@Z
?setName@BatchNormalizationLayer@Builder@InferenceEngine@@QEAAAEAV123@AEBV?$basic_string@DU?$char_traits@D@std@@V?$allocator@D@2@@std@@@Z
?setName@CNNNetworkImpl@details@InferenceEngine@@QEAAXAEBV?$basic_string@DU?$char_traits@D@std@@V?$allocator@D@2@@std@@@Z
?setName@CTCGreedyDecoderLayer@Builder@InferenceEngine@@QEAAAEAV123@AEBV?$basic_string@DU?$char_traits@D@std@@V?$allocator@D@2@@std@@@Z
?setName@ClampLayer@Builder@InferenceEngine@@QEAAAEAV123@AEBV?$basic_string@DU?$char_traits@D@std@@V?$allocator@D@2@@std@@@Z
?setName@ConcatLayer@Builder@InferenceEngine@@QEAAAEAV123@AEBV?$basic_string@DU?$char_traits@D@std@@V?$allocator@D@2@@std@@@Z
?setName@ConstLayer@Builder@InferenceEngine@@QEAAAEAV123@AEBV?$basic_string@DU?$char_traits@D@std@@V?$allocator@D@2@@std@@@Z
?setName@ConvolutionLayer@Builder@InferenceEngine@@QEAAAEAV123@AEBV?$basic_string@DU?$char_traits@D@std@@V?$allocator@D@2@@std@@@Z
?setName@CropLayer@Builder@InferenceEngine@@QEAAAEAV123@AEBV?$basic_string@DU?$char_traits@D@std@@V?$allocator@D@2@@std@@@Z
?setName@Data@InferenceEngine@@QEAAXAEBV?$basic_string@DU?$char_traits@D@std@@V?$allocator@D@2@@std@@@Z
?setName@DetectionOutputLayer@Builder@InferenceEngine@@QEAAAEAV123@AEBV?$basic_string@DU?$char_traits@D@std@@V?$allocator@D@2@@std@@@Z
?setName@ELULayer@Builder@InferenceEngine@@QEAAAEAV123@AEBV?$basic_string@DU?$char_traits@D@std@@V?$allocator@D@2@@std@@@Z
?setName@EltwiseLayer@Builder@InferenceEngine@@QEAAAEAV123@AEBV?$basic_string@DU?$char_traits@D@std@@V?$allocator@D@2@@std@@@Z
?setName@FullyConnectedLayer@Builder@InferenceEngine@@QEAAAEAV123@AEBV?$basic_string@DU?$char_traits@D@std@@V?$allocator@D@2@@std@@@Z
?setName@GRNLayer@Builder@InferenceEngine@@QEAAAEAV123@AEBV?$basic_string@DU?$char_traits@D@std@@V?$allocator@D@2@@std@@@Z
?setName@GRUSequenceLayer@Builder@InferenceEngine@@QEAAAEAV123@AEBV?$basic_string@DU?$char_traits@D@std@@V?$allocator@D@2@@std@@@Z
?setName@InputLayer@Builder@InferenceEngine@@QEAAAEAV123@AEBV?$basic_string@DU?$char_traits@D@std@@V?$allocator@D@2@@std@@@Z
?setName@LRNLayer@Builder@InferenceEngine@@QEAAAEAV123@AEBV?$basic_string@DU?$char_traits@D@std@@V?$allocator@D@2@@std@@@Z
?setName@LSTMSequenceLayer@Builder@InferenceEngine@@QEAAAEAV123@AEBV?$basic_string@DU?$char_traits@D@std@@V?$allocator@D@2@@std@@@Z
?setName@Layer@Builder@InferenceEngine@@QEAAAEAV123@AEBV?$basic_string@DU?$char_traits@D@std@@V?$allocator@D@2@@std@@@Z
?setName@MVNLayer@Builder@InferenceEngine@@QEAAAEAV123@AEBV?$basic_string@DU?$char_traits@D@std@@V?$allocator@D@2@@std@@@Z
?setName@MemoryLayer@Builder@InferenceEngine@@QEAAAEAV123@AEBV?$basic_string@DU?$char_traits@D@std@@V?$allocator@D@2@@std@@@Z
?setName@NormLayer@Builder@InferenceEngine@@QEAAAEAV123@AEBV?$basic_string@DU?$char_traits@D@std@@V?$allocator@D@2@@std@@@Z
?setName@NormalizeLayer@Builder@InferenceEngine@@QEAAAEAV123@AEBV?$basic_string@DU?$char_traits@D@std@@V?$allocator@D@2@@std@@@Z
?setName@OutputLayer@Builder@InferenceEngine@@QEAAAEAV123@AEBV?$basic_string@DU?$char_traits@D@std@@V?$allocator@D@2@@std@@@Z
?setName@PReLULayer@Builder@InferenceEngine@@QEAAAEAV123@AEBV?$basic_string@DU?$char_traits@D@std@@V?$allocator@D@2@@std@@@Z
?setName@PSROIPoolingLayer@Builder@InferenceEngine@@QEAAAEAV123@AEBV?$basic_string@DU?$char_traits@D@std@@V?$allocator@D@2@@std@@@Z
?setName@PermuteLayer@Builder@InferenceEngine@@QEAAAEAV123@AEBV?$basic_string@DU?$char_traits@D@std@@V?$allocator@D@2@@std@@@Z
?setName@PoolingLayer@Builder@InferenceEngine@@QEAAAEAV123@AEBV?$basic_string@DU?$char_traits@D@std@@V?$allocator@D@2@@std@@@Z
?setName@PowerLayer@Builder@InferenceEngine@@QEAAAEAV123@AEBV?$basic_string@DU?$char_traits@D@std@@V?$allocator@D@2@@std@@@Z
?setName@PriorBoxClusteredLayer@Builder@InferenceEngine@@QEAAAEAV123@AEBV?$basic_string@DU?$char_traits@D@std@@V?$allocator@D@2@@std@@@Z
?setName@PriorBoxLayer@Builder@InferenceEngine@@QEAAAEAV123@AEBV?$basic_string@DU?$char_traits@D@std@@V?$allocator@D@2@@std@@@Z
?setName@ProposalLayer@Builder@InferenceEngine@@QEAAAEAV123@AEBV?$basic_string@DU?$char_traits@D@std@@V?$allocator@D@2@@std@@@Z
?setName@RNNSequenceLayer@Builder@InferenceEngine@@QEAAAEAV123@AEBV?$basic_string@DU?$char_traits@D@std@@V?$allocator@D@2@@std@@@Z
?setName@ROIPoolingLayer@Builder@InferenceEngine@@QEAAAEAV123@AEBV?$basic_string@DU?$char_traits@D@std@@V?$allocator@D@2@@std@@@Z
?setName@ReLU6Layer@Builder@InferenceEngine@@QEAAAEAV123@AEBV?$basic_string@DU?$char_traits@D@std@@V?$allocator@D@2@@std@@@Z
?setName@ReLULayer@Builder@InferenceEngine@@QEAAAEAV123@AEBV?$basic_string@DU?$char_traits@D@std@@V?$allocator@D@2@@std@@@Z
?setName@RegionYoloLayer@Builder@InferenceEngine@@QEAAAEAV123@AEBV?$basic_string@DU?$char_traits@D@std@@V?$allocator@D@2@@std@@@Z
?setName@ReorgYoloLayer@Builder@InferenceEngine@@QEAAAEAV123@AEBV?$basic_string@DU?$char_traits@D@std@@V?$allocator@D@2@@std@@@Z
?setName@ResampleLayer@Builder@InferenceEngine@@QEAAAEAV123@AEBV?$basic_string@DU?$char_traits@D@std@@V?$allocator@D@2@@std@@@Z
?setName@ReshapeLayer@Builder@InferenceEngine@@QEAAAEAV123@AEBV?$basic_string@DU?$char_traits@D@std@@V?$allocator@D@2@@std@@@Z
?setName@ScaleShiftLayer@Builder@InferenceEngine@@QEAAAEAV123@AEBV?$basic_string@DU?$char_traits@D@std@@V?$allocator@D@2@@std@@@Z
?setName@SigmoidLayer@Builder@InferenceEngine@@QEAAAEAV123@AEBV?$basic_string@DU?$char_traits@D@std@@V?$allocator@D@2@@std@@@Z
?setName@SimplerNMSLayer@Builder@InferenceEngine@@QEAAAEAV123@AEBV?$basic_string@DU?$char_traits@D@std@@V?$allocator@D@2@@std@@@Z
?setName@SoftMaxLayer@Builder@InferenceEngine@@QEAAAEAV123@AEBV?$basic_string@DU?$char_traits@D@std@@V?$allocator@D@2@@std@@@Z
?setName@SplitLayer@Builder@InferenceEngine@@QEAAAEAV123@AEBV?$basic_string@DU?$char_traits@D@std@@V?$allocator@D@2@@std@@@Z
?setName@TanHLayer@Builder@InferenceEngine@@QEAAAEAV123@AEBV?$basic_string@DU?$char_traits@D@std@@V?$allocator@D@2@@std@@@Z
?setName@TileLayer@Builder@InferenceEngine@@QEAAAEAV123@AEBV?$basic_string@DU?$char_traits@D@std@@V?$allocator@D@2@@std@@@Z
?setNegativeSlope@ReLULayer@Builder@InferenceEngine@@QEAAAEAV123@M@Z
?setNodesStats@CNNNetworkStatsImpl@details@InferenceEngine@@UEAAXAEBV?$map@V?$basic_string@DU?$char_traits@D@std@@V?$allocator@D@2@@std@@V?$shared_ptr@VNetworkNodeStats@InferenceEngine@@@2@U?$less@V?$basic_string@DU?$char_traits@D@std@@V?$allocator@D@2@@std@@@2@V?$allocator@U?$pair@$$CBV?$basic_string@DU?$char_traits@D@std@@V?$allocator@D@2@@std@@V?$shared_ptr@VNetworkNodeStats@InferenceEngine@@@2@@std@@@2@@std@@@Z
?setNormalize@MVNLayer@Builder@InferenceEngine@@QEAAAEAV123@_N@Z
?setNum@RegionYoloLayer@Builder@InferenceEngine@@QEAAAEAV123@H@Z
?setNumClasses@DetectionOutputLayer@Builder@InferenceEngine@@QEAAAEAV123@_K@Z
?setNumOrientClasses@DetectionOutputLayer@Builder@InferenceEngine@@QEAAAEAV123@H@Z
?setOffset@CropLayer@Builder@InferenceEngine@@QEAAAEAV123@AEBV?$vector@_KV?$allocator@_K@std@@@std@@@Z
?setOffset@PriorBoxClusteredLayer@Builder@InferenceEngine@@QEAAAEAV123@M@Z
?setOffset@PriorBoxLayer@Builder@InferenceEngine@@QEAAAEAV123@M@Z
?setOrder@PermuteLayer@Builder@InferenceEngine@@QEAAAEAV123@AEBV?$vector@_KV?$allocator@_K@std@@@std@@@Z
?setOutDepth@ConvolutionLayer@Builder@InferenceEngine@@QEAAAEAV123@_K@Z
?setOutMaxVal@ArgMaxLayer@Builder@InferenceEngine@@QEAAAEAV123@_K@Z
?setOutputDim@PSROIPoolingLayer@Builder@InferenceEngine@@QEAAAEAV123@_K@Z
?setOutputNum@FullyConnectedLayer@Builder@InferenceEngine@@QEAAAEAV123@_K@Z
?setOutputPort@CTCGreedyDecoderLayer@Builder@InferenceEngine@@QEAAAEAV123@AEBVPort@3@@Z
?setOutputPort@ConcatLayer@Builder@InferenceEngine@@QEAAAEAV123@AEBVPort@3@@Z
?setOutputPort@ConvolutionLayer@Builder@InferenceEngine@@QEAAAEAV123@AEBVPort@3@@Z
?setOutputPort@CropLayer@Builder@InferenceEngine@@QEAAAEAV123@AEBVPort@3@@Z
?setOutputPort@DetectionOutputLayer@Builder@InferenceEngine@@QEAAAEAV123@AEBVPort@3@@Z
?setOutputPort@EltwiseLayer@Builder@InferenceEngine@@QEAAAEAV123@AEBVPort@3@@Z
?setOutputPort@FullyConnectedLayer@Builder@InferenceEngine@@QEAAAEAV123@AEBVPort@3@@Z
?setOutputPort@MemoryLayer@Builder@InferenceEngine@@QEAAAEAV123@AEBVPort@3@@Z
?setOutputPort@PSROIPoolingLayer@Builder@InferenceEngine@@QEAAAEAV123@AEBVPort@3@@Z
?setOutputPort@PermuteLayer@Builder@InferenceEngine@@QEAAAEAV123@AEBVPort@3@@Z
?setOutputPort@PoolingLayer@Builder@InferenceEngine@@QEAAAEAV123@AEBVPort@3@@Z
?setOutputPort@PriorBoxClusteredLayer@Builder@InferenceEngine@@QEAAAEAV123@AEBVPort@3@@Z
?setOutputPort@PriorBoxLayer@Builder@InferenceEngine@@QEAAAEAV123@AEBVPort@3@@Z
?setOutputPort@ProposalLayer@Builder@InferenceEngine@@QEAAAEAV123@AEBVPort@3@@Z
?setOutputPort@ROIPoolingLayer@Builder@InferenceEngine@@QEAAAEAV123@AEBVPort@3@@Z
?setOutputPort@RegionYoloLayer@Builder@InferenceEngine@@QEAAAEAV123@AEBVPort@3@@Z
?setOutputPort@ReorgYoloLayer@Builder@InferenceEngine@@QEAAAEAV123@AEBVPort@3@@Z
?setOutputPort@ResampleLayer@Builder@InferenceEngine@@QEAAAEAV123@AEBVPort@3@@Z
?setOutputPort@ReshapeLayer@Builder@InferenceEngine@@QEAAAEAV123@AEBVPort@3@@Z
?setOutputPort@SimplerNMSLayer@Builder@InferenceEngine@@QEAAAEAV123@AEBVPort@3@@Z
?setOutputPort@TileLayer@Builder@InferenceEngine@@QEAAAEAV123@AEBVPort@3@@Z
?setOutputPorts@GRUSequenceLayer@Builder@InferenceEngine@@QEAAAEAV123@AEBV?$vector@VPort@InferenceEngine@@V?$allocator@VPort@InferenceEngine@@@std@@@std@@@Z
?setOutputPorts@LSTMSequenceLayer@Builder@InferenceEngine@@QEAAAEAV123@AEBV?$vector@VPort@InferenceEngine@@V?$allocator@VPort@InferenceEngine@@@std@@@std@@@Z
?setOutputPorts@Layer@Builder@InferenceEngine@@QEAAAEAV123@AEBV?$vector@VPort@InferenceEngine@@V?$allocator@VPort@InferenceEngine@@@std@@@std@@@Z
?setOutputPorts@RNNSequenceLayer@Builder@InferenceEngine@@QEAAAEAV123@AEBV?$vector@VPort@InferenceEngine@@V?$allocator@VPort@InferenceEngine@@@std@@@std@@@Z
?setOutputPorts@SplitLayer@Builder@InferenceEngine@@QEAAAEAV123@AEBV?$vector@VPort@InferenceEngine@@V?$allocator@VPort@InferenceEngine@@@std@@@std@@@Z
?setPaddingsBegin@ConvolutionLayer@Builder@InferenceEngine@@QEAAAEAV123@AEBV?$vector@_KV?$allocator@_K@std@@@std@@@Z
?setPaddingsBegin@PoolingLayer@Builder@InferenceEngine@@QEAAAEAV123@AEBV?$vector@_KV?$allocator@_K@std@@@std@@@Z
?setPaddingsEnd@ConvolutionLayer@Builder@InferenceEngine@@QEAAAEAV123@AEBV?$vector@_KV?$allocator@_K@std@@@std@@@Z
?setPaddingsEnd@PoolingLayer@Builder@InferenceEngine@@QEAAAEAV123@AEBV?$vector@_KV?$allocator@_K@std@@@std@@@Z
?setParameter@Port@InferenceEngine@@QEAAXAEBV?$basic_string@DU?$char_traits@D@std@@V?$allocator@D@2@@std@@AEBVParameter@2@@Z
?setParameters@Layer@Builder@InferenceEngine@@QEAAAEAV123@AEBV?$map@V?$basic_string@DU?$char_traits@D@std@@V?$allocator@D@2@@std@@VParameter@InferenceEngine@@U?$less@V?$basic_string@DU?$char_traits@D@std@@V?$allocator@D@2@@std@@@2@V?$allocator@U?$pair@$$CBV?$basic_string@DU?$char_traits@D@std@@V?$allocator@D@2@@std@@VParameter@InferenceEngine@@@std@@@2@@std@@@Z
?setParameters@Port@InferenceEngine@@QEAAXAEBV?$map@V?$basic_string@DU?$char_traits@D@std@@V?$allocator@D@2@@std@@VParameter@InferenceEngine@@U?$less@V?$basic_string@DU?$char_traits@D@std@@V?$allocator@D@2@@std@@@2@V?$allocator@U?$pair@$$CBV?$basic_string@DU?$char_traits@D@std@@V?$allocator@D@2@@std@@VParameter@InferenceEngine@@@std@@@2@@std@@@Z
?setPooled@ROIPoolingLayer@Builder@InferenceEngine@@QEAAAEAV123@AEBV?$vector@HV?$allocator@H@std@@@std@@@Z
?setPoolingType@PoolingLayer@Builder@InferenceEngine@@QEAAAEAV123@W4PoolingType@123@@Z
?setPort@ArgMaxLayer@Builder@InferenceEngine@@QEAAAEAV123@AEBVPort@3@@Z
?setPort@BatchNormalizationLayer@Builder@InferenceEngine@@QEAAAEAV123@AEBVPort@3@@Z
?setPort@ClampLayer@Builder@InferenceEngine@@QEAAAEAV123@AEBVPort@3@@Z
?setPort@ConstLayer@Builder@InferenceEngine@@QEAAAEAV123@AEBVPort@3@@Z
?setPort@ELULayer@Builder@InferenceEngine@@QEAAAEAV123@AEBVPort@3@@Z
?setPort@GRNLayer@Builder@InferenceEngine@@QEAAAEAV123@AEBVPort@3@@Z
?setPort@InputLayer@Builder@InferenceEngine@@QEAAAEAV123@AEBVPort@3@@Z
?setPort@LRNLayer@Builder@InferenceEngine@@QEAAAEAV123@AEBVPort@3@@Z
?setPort@MVNLayer@Builder@InferenceEngine@@QEAAAEAV123@AEBVPort@3@@Z
?setPort@NormLayer@Builder@InferenceEngine@@QEAAAEAV123@AEBVPort@3@@Z
?setPort@NormalizeLayer@Builder@InferenceEngine@@QEAAAEAV123@AEBVPort@3@@Z
?setPort@OutputLayer@Builder@InferenceEngine@@QEAAAEAV123@AEBVPort@3@@Z
?setPort@PReLULayer@Builder@InferenceEngine@@QEAAAEAV123@AEBVPort@3@@Z
?setPort@PowerLayer@Builder@InferenceEngine@@QEAAAEAV123@AEBVPort@3@@Z
?setPort@ReLU6Layer@Builder@InferenceEngine@@QEAAAEAV123@AEBVPort@3@@Z
?setPort@ReLULayer@Builder@InferenceEngine@@QEAAAEAV123@AEBVPort@3@@Z
?setPort@ScaleShiftLayer@Builder@InferenceEngine@@QEAAAEAV123@AEBVPort@3@@Z
?setPort@SigmoidLayer@Builder@InferenceEngine@@QEAAAEAV123@AEBVPort@3@@Z
?setPort@SoftMaxLayer@Builder@InferenceEngine@@QEAAAEAV123@AEBVPort@3@@Z
?setPort@TanHLayer@Builder@InferenceEngine@@QEAAAEAV123@AEBVPort@3@@Z
?setPostNMSTopN@ProposalLayer@Builder@InferenceEngine@@QEAAAEAV123@_K@Z
?setPostNMSTopN@SimplerNMSLayer@Builder@InferenceEngine@@QEAAAEAV123@_K@Z
?setPower@PowerLayer@Builder@InferenceEngine@@QEAAAEAV123@M@Z
?setPreNMSTopN@ProposalLayer@Builder@InferenceEngine@@QEAAAEAV123@_K@Z
?setPreNMSTopN@SimplerNMSLayer@Builder@InferenceEngine@@QEAAAEAV123@_K@Z
?setPrecision@CNNNetworkImpl@details@InferenceEngine@@QEAAXW4ePrecision@Precision@3@@Z
?setPrecision@Data@InferenceEngine@@QEAAXAEBVPrecision@2@@Z
?setPrecision@TensorDesc@InferenceEngine@@QEAAXAEBVPrecision@2@@Z
?setRatio@ProposalLayer@Builder@InferenceEngine@@QEAAAEAV123@AEBV?$vector@MV?$allocator@M@std@@@std@@@Z
?setRegion@NormLayer@Builder@InferenceEngine@@QEAAAEAV123@W4NormType@123@@Z
?setResampleType@ResampleLayer@Builder@InferenceEngine@@QEAAAEAV123@AEBV?$basic_string@DU?$char_traits@D@std@@V?$allocator@D@2@@std@@@Z
?setRoiBlob@PreProcessData@InferenceEngine@@QEAAXAEBV?$shared_ptr@VBlob@InferenceEngine@@@std@@@Z
?setRoundingType@PoolingLayer@Builder@InferenceEngine@@QEAAAEAV123@W4RoundingType@123@@Z
?setScale@PowerLayer@Builder@InferenceEngine@@QEAAAEAV123@M@Z
?setScale@ProposalLayer@Builder@InferenceEngine@@QEAAAEAV123@AEBV?$vector@MV?$allocator@M@std@@@std@@@Z
?setScale@SimplerNMSLayer@Builder@InferenceEngine@@QEAAAEAV123@_K@Z
?setScaleAllSizes@PriorBoxLayer@Builder@InferenceEngine@@QEAAAEAV123@_N@Z
?setScales@EltwiseLayer@Builder@InferenceEngine@@QEAAAEAV123@AEBV?$vector@MV?$allocator@M@std@@@std@@@Z
?setShape@Port@InferenceEngine@@QEAAXAEBV?$vector@_KV?$allocator@_K@std@@@std@@@Z
?setShape@PortData@InferenceEngine@@QEAAXAEBV?$vector@_KV?$allocator@_K@std@@@std@@@Z
?setShareLocation@DetectionOutputLayer@Builder@InferenceEngine@@QEAAAEAV123@_N@Z
?setShift@PowerLayer@Builder@InferenceEngine@@QEAAAEAV123@M@Z
?setSize@LRNLayer@Builder@InferenceEngine@@QEAAAEAV123@_K@Z
?setSize@MemoryLayer@Builder@InferenceEngine@@QEAAAEAV123@_K@Z
?setSize@NormLayer@Builder@InferenceEngine@@QEAAAEAV123@_K@Z
?setSpatialScale@PSROIPoolingLayer@Builder@InferenceEngine@@QEAAAEAV123@M@Z
?setSpatialScale@ROIPoolingLayer@Builder@InferenceEngine@@QEAAAEAV123@M@Z
?setSqquenceDim@GRUSequenceLayer@Builder@InferenceEngine@@QEAAAEAV123@_N@Z
?setSqquenceDim@LSTMSequenceLayer@Builder@InferenceEngine@@QEAAAEAV123@_N@Z
?setSqquenceDim@RNNSequenceLayer@Builder@InferenceEngine@@QEAAAEAV123@_N@Z
?setStatus@Task@InferenceEngine@@IEAAXW4Status@12@@Z
?setStep@PriorBoxClusteredLayer@Builder@InferenceEngine@@QEAAAEAV123@M@Z
?setStep@PriorBoxLayer@Builder@InferenceEngine@@QEAAAEAV123@M@Z
?setSteps@PriorBoxClusteredLayer@Builder@InferenceEngine@@QEAAAEAV123@V?$vector@MV?$allocator@M@std@@@std@@@Z
?setStride@ReorgYoloLayer@Builder@InferenceEngine@@QEAAAEAV123@H@Z
?setStrides@ConvolutionLayer@Builder@InferenceEngine@@QEAAAEAV123@AEBV?$vector@_KV?$allocator@_K@std@@@std@@@Z
?setStrides@PoolingLayer@Builder@InferenceEngine@@QEAAAEAV123@AEBV?$vector@_KV?$allocator@_K@std@@@std@@@Z
?setTargetDevice@CNNNetworkImpl@details@InferenceEngine@@UEAAXW4TargetDevice@3@@Z
?setTiles@TileLayer@Builder@InferenceEngine@@QEAAAEAV123@_K@Z
?setTopK@ArgMaxLayer@Builder@InferenceEngine@@QEAAAEAV123@_K@Z
?setTopK@DetectionOutputLayer@Builder@InferenceEngine@@QEAAAEAV123@H@Z
?setType@Layer@Builder@InferenceEngine@@QEAAAEAV123@AEBV?$basic_string@DU?$char_traits@D@std@@V?$allocator@D@2@@std@@@Z
?setVariance@PriorBoxClusteredLayer@Builder@InferenceEngine@@QEAAAEAV123@M@Z
?setVariance@PriorBoxLayer@Builder@InferenceEngine@@QEAAAEAV123@M@Z
?setVariantEncodedInTarget@DetectionOutputLayer@Builder@InferenceEngine@@QEAAAEAV123@_N@Z
?setWidth@PriorBoxClusteredLayer@Builder@InferenceEngine@@QEAAAEAV123@M@Z
?setWidth@ResampleLayer@Builder@InferenceEngine@@QEAAAEAV123@_K@Z
?shape@Port@InferenceEngine@@QEBAAEBV?$vector@_KV?$allocator@_K@std@@@std@@XZ
?shared_from_this@?$enable_shared_from_this@VLayer@Builder@InferenceEngine@@@std@@QEAA?AV?$shared_ptr@VLayer@Builder@InferenceEngine@@@2@XZ
?shared_from_this@?$enable_shared_from_this@VLayer@Builder@InferenceEngine@@@std@@QEBA?AV?$shared_ptr@$$CBVLayer@Builder@InferenceEngine@@@2@XZ
?size@CompoundBlob@InferenceEngine@@UEBA_KXZ
?size@Network@Builder@InferenceEngine@@UEBA_KXZ
?stageDone@StagedTask@InferenceEngine@@QEAAXXZ
?startTask@TaskExecutor@InferenceEngine@@UEAA_NV?$shared_ptr@VTask@InferenceEngine@@@std@@@Z
?traverse@0InferenceEngine@@YAXAEAVICNNNetwork@1@V?$function@$$A6AXAEAV?$shared_ptr@VCNNLayer@InferenceEngine@@@std@@@Z@std@@V?$function@$$A6AXAEBV?$shared_ptr@VCNNLayer@InferenceEngine@@@std@@AEAV?$deque@V?$shared_ptr@VCNNLayer@InferenceEngine@@@std@@V?$allocator@V?$shared_ptr@VCNNLayer@InferenceEngine@@@std@@@2@@2@@Z@4@@Z
?trimShapeInputs@ConstTransformer@InferenceEngine@@MEAAXAEBV?$vector@V?$basic_string@DU?$char_traits@D@std@@V?$allocator@D@2@@std@@V?$allocator@V?$basic_string@DU?$char_traits@D@std@@V?$allocator@D@2@@std@@@2@@std@@@Z
?uv@NV12Blob@InferenceEngine@@UEAAAEAV?$shared_ptr@VBlob@InferenceEngine@@@std@@XZ
?uv@NV12Blob@InferenceEngine@@UEBAAEBV?$shared_ptr@VBlob@InferenceEngine@@@std@@XZ
?validate@CNNNetworkImpl@details@InferenceEngine@@UEAAXH@Z
?validate@Layer@Builder@InferenceEngine@@QEBAX_N@Z
?validate@Network@Builder@InferenceEngine@@QEAAXXZ
?validateLayer@CNNLayer@InferenceEngine@@QEAAXXZ
?wait@Task@InferenceEngine@@QEAA?AW4Status@12@_J@Z
?weak_from_this@?$enable_shared_from_this@VLayer@Builder@InferenceEngine@@@std@@QEAA?AV?$weak_ptr@VLayer@Builder@InferenceEngine@@@2@XZ
?weak_from_this@?$enable_shared_from_this@VLayer@Builder@InferenceEngine@@@std@@QEBA?AV?$weak_ptr@$$CBVLayer@Builder@InferenceEngine@@@2@XZ
?with_cpu_x86_sse42@InferenceEngine@@YA_NXZ
?y@NV12Blob@InferenceEngine@@UEAAAEAV?$shared_ptr@VBlob@InferenceEngine@@@std@@XZ
?y@NV12Blob@InferenceEngine@@UEBAAEBV?$shared_ptr@VBlob@InferenceEngine@@@std@@XZ
CreateCNNNetReader
CreateDefaultAllocator
GetInferenceEngineVersion
findPlugin
