LIBRARY "opencv_core412.dll"
EXPORTS
??0Algorithm@cv@@QEAA@AEBV01@@Z
??0Algorithm@cv@@QEAA@XZ
??0Allocator@GpuMat@cuda@cv@@QEAA@AEBV0123@@Z
??0Allocator@GpuMat@cuda@cv@@QEAA@XZ
??0Arrays@ogl@cv@@QEAA@$$QEAV012@@Z
??0Arrays@ogl@cv@@QEAA@AEBV012@@Z
??0Arrays@ogl@cv@@QEAA@XZ
??0AsyncArray@cv@@QEAA@$$QEAV01@@Z
??0AsyncArray@cv@@QEAA@AEBV01@@Z
??0AsyncArray@cv@@QEAA@XZ
??0AsyncPromise@cv@@QEAA@$$QEAV01@@Z
??0AsyncPromise@cv@@QEAA@AEBV01@@Z
??0AsyncPromise@cv@@QEAA@XZ
??0Buffer@ogl@cv@@QEAA@$$QEAV012@@Z
??0Buffer@ogl@cv@@QEAA@AEBV012@@Z
??0Buffer@ogl@cv@@QEAA@AEBV_InputArray@2@W4Target@012@_N@Z
??0Buffer@ogl@cv@@QEAA@HHHI_N@Z
??0Buffer@ogl@cv@@QEAA@HHHW4Target@012@_N@Z
??0Buffer@ogl@cv@@QEAA@V?$Size_@H@2@HI_N@Z
??0Buffer@ogl@cv@@QEAA@V?$Size_@H@2@HW4Target@012@_N@Z
??0Buffer@ogl@cv@@QEAA@XZ
??0BufferPool@cuda@cv@@QEAA@$$QEAV012@@Z
??0BufferPool@cuda@cv@@QEAA@AEAVStream@12@@Z
??0BufferPool@cuda@cv@@QEAA@AEBV012@@Z
??0CommandLineParser@cv@@QEAA@AEBV01@@Z
??0CommandLineParser@cv@@QEAA@HQEBQEBDAEBV?$basic_string@DU?$char_traits@D@std@@V?$allocator@D@2@@std@@@Z
??0ConjGradSolver@cv@@QEAA@$$QEAV01@@Z
??0ConjGradSolver@cv@@QEAA@AEBV01@@Z
??0ConjGradSolver@cv@@QEAA@XZ
??0Context@ocl@cv@@QEAA@AEBV012@@Z
??0Context@ocl@cv@@QEAA@H@Z
??0Context@ocl@cv@@QEAA@XZ
??0DCT2D@hal@cv@@QEAA@AEBU012@@Z
??0DCT2D@hal@cv@@QEAA@XZ
??0DFT1D@hal@cv@@QEAA@AEBU012@@Z
??0DFT1D@hal@cv@@QEAA@XZ
??0DFT2D@hal@cv@@QEAA@AEBU012@@Z
??0DFT2D@hal@cv@@QEAA@XZ
??0DMatch@cv@@QEAA@HHHM@Z
??0DMatch@cv@@QEAA@HHM@Z
??0DMatch@cv@@QEAA@XZ
??0Device@ocl@cv@@QEAA@AEBV012@@Z
??0Device@ocl@cv@@QEAA@PEAX@Z
??0Device@ocl@cv@@QEAA@XZ
??0DeviceInfo@cuda@cv@@QEAA@H@Z
??0DeviceInfo@cuda@cv@@QEAA@XZ
??0DownhillSolver@cv@@QEAA@$$QEAV01@@Z
??0DownhillSolver@cv@@QEAA@AEBV01@@Z
??0DownhillSolver@cv@@QEAA@XZ
??0Event@cuda@cv@@AEAA@AEBU?$Ptr@VImpl@Event@cuda@cv@@@2@@Z
??0Event@cuda@cv@@QEAA@$$QEAV012@@Z
??0Event@cuda@cv@@QEAA@AEBV012@@Z
??0Event@cuda@cv@@QEAA@W4CreateFlags@012@@Z
??0Exception@cv@@QEAA@AEBV01@@Z
??0Exception@cv@@QEAA@HAEBV?$basic_string@DU?$char_traits@D@std@@V?$allocator@D@2@@std@@00H@Z
??0Exception@cv@@QEAA@XZ
??0FileLock@fs@utils@cv@@QEAA@PEBD@Z
??0FileNode@cv@@QEAA@AEBV01@@Z
??0FileNode@cv@@QEAA@PEBVFileStorage@1@_K1@Z
??0FileNode@cv@@QEAA@XZ
??0FileNodeIterator@cv@@QEAA@AEBV01@@Z
??0FileNodeIterator@cv@@QEAA@AEBVFileNode@1@_N@Z
??0FileNodeIterator@cv@@QEAA@XZ
??0FileStorage@cv@@QEAA@AEBV01@@Z
??0FileStorage@cv@@QEAA@AEBV?$basic_string@DU?$char_traits@D@std@@V?$allocator@D@2@@std@@H0@Z
??0FileStorage@cv@@QEAA@XZ
??0Formatted@cv@@QEAA@AEBV01@@Z
??0Formatted@cv@@QEAA@XZ
??0Formatter@cv@@QEAA@AEBV01@@Z
??0Formatter@cv@@QEAA@XZ
??0Function@MinProblemSolver@cv@@QEAA@AEBV012@@Z
??0Function@MinProblemSolver@cv@@QEAA@XZ
??0GpuMat@cuda@cv@@QEAA@AEBV012@@Z
??0GpuMat@cuda@cv@@QEAA@AEBV012@V?$Rect_@H@2@@Z
??0GpuMat@cuda@cv@@QEAA@AEBV012@VRange@2@1@Z
??0GpuMat@cuda@cv@@QEAA@AEBV_InputArray@2@PEAVAllocator@012@@Z
??0GpuMat@cuda@cv@@QEAA@HHHPEAVAllocator@012@@Z
??0GpuMat@cuda@cv@@QEAA@HHHPEAX_K@Z
??0GpuMat@cuda@cv@@QEAA@HHHV?$Scalar_@N@2@PEAVAllocator@012@@Z
??0GpuMat@cuda@cv@@QEAA@PEAVAllocator@012@@Z
??0GpuMat@cuda@cv@@QEAA@V?$Size_@H@2@HPEAVAllocator@012@@Z
??0GpuMat@cuda@cv@@QEAA@V?$Size_@H@2@HPEAX_K@Z
??0GpuMat@cuda@cv@@QEAA@V?$Size_@H@2@HV?$Scalar_@N@2@PEAVAllocator@012@@Z
??0Hdr@SparseMat@cv@@QEAA@$$QEAU012@@Z
??0Hdr@SparseMat@cv@@QEAA@AEBU012@@Z
??0Hdr@SparseMat@cv@@QEAA@HPEBHH@Z
??0HostMem@cuda@cv@@QEAA@AEBV012@@Z
??0HostMem@cuda@cv@@QEAA@AEBV_InputArray@2@W4AllocType@012@@Z
??0HostMem@cuda@cv@@QEAA@HHHW4AllocType@012@@Z
??0HostMem@cuda@cv@@QEAA@V?$Size_@H@2@HW4AllocType@012@@Z
??0HostMem@cuda@cv@@QEAA@W4AllocType@012@@Z
??0Image2D@ocl@cv@@QEAA@AEBV012@@Z
??0Image2D@ocl@cv@@QEAA@AEBVUMat@2@_N1@Z
??0Image2D@ocl@cv@@QEAA@XZ
??0Kernel@ocl@cv@@QEAA@AEBV012@@Z
??0Kernel@ocl@cv@@QEAA@PEBDAEBVProgram@12@@Z
??0Kernel@ocl@cv@@QEAA@PEBDAEBVProgramSource@12@AEBV?$basic_string@DU?$char_traits@D@std@@V?$allocator@D@2@@std@@PEAV45@@Z
??0Kernel@ocl@cv@@QEAA@XZ
??0KernelArg@ocl@cv@@QEAA@HPEAVUMat@2@HHPEBX_K@Z
??0KernelArg@ocl@cv@@QEAA@XZ
??0KeyPoint@cv@@QEAA@$$QEAV01@@Z
??0KeyPoint@cv@@QEAA@AEBV01@@Z
??0KeyPoint@cv@@QEAA@MMMMMHH@Z
??0KeyPoint@cv@@QEAA@V?$Point_@M@1@MMMHH@Z
??0KeyPoint@cv@@QEAA@XZ
??0LDA@cv@@QEAA@AEBV01@@Z
??0LDA@cv@@QEAA@AEBV_InputArray@1@0H@Z
??0LDA@cv@@QEAA@H@Z
??0Mat@cv@@QEAA@$$QEAV01@@Z
??0Mat@cv@@QEAA@AEBV01@@Z
??0Mat@cv@@QEAA@AEBV01@AEBV?$Rect_@H@1@@Z
??0Mat@cv@@QEAA@AEBV01@AEBV?$vector@VRange@cv@@V?$allocator@VRange@cv@@@std@@@std@@@Z
??0Mat@cv@@QEAA@AEBV01@AEBVRange@1@1@Z
??0Mat@cv@@QEAA@AEBV01@PEBVRange@1@@Z
??0Mat@cv@@QEAA@AEBV?$vector@HV?$allocator@H@std@@@std@@H@Z
??0Mat@cv@@QEAA@AEBV?$vector@HV?$allocator@H@std@@@std@@HAEBV?$Scalar_@N@1@@Z
??0Mat@cv@@QEAA@AEBV?$vector@HV?$allocator@H@std@@@std@@HPEAXPEB_K@Z
??0Mat@cv@@QEAA@AEBVGpuMat@cuda@1@@Z
??0Mat@cv@@QEAA@HHH@Z
??0Mat@cv@@QEAA@HHHAEBV?$Scalar_@N@1@@Z
??0Mat@cv@@QEAA@HHHPEAX_K@Z
??0Mat@cv@@QEAA@HPEBHH@Z
??0Mat@cv@@QEAA@HPEBHHAEBV?$Scalar_@N@1@@Z
??0Mat@cv@@QEAA@HPEBHHPEAXPEB_K@Z
??0Mat@cv@@QEAA@V?$Size_@H@1@H@Z
??0Mat@cv@@QEAA@V?$Size_@H@1@HAEBV?$Scalar_@N@1@@Z
??0Mat@cv@@QEAA@V?$Size_@H@1@HPEAX_K@Z
??0Mat@cv@@QEAA@XZ
??0MatAllocator@cv@@QEAA@AEBV01@@Z
??0MatAllocator@cv@@QEAA@XZ
??0MatConstIterator@cv@@QEAA@AEBV01@@Z
??0MatConstIterator@cv@@QEAA@PEBVMat@1@@Z
??0MatConstIterator@cv@@QEAA@PEBVMat@1@HH@Z
??0MatConstIterator@cv@@QEAA@PEBVMat@1@V?$Point_@H@1@@Z
??0MatConstIterator@cv@@QEAA@XZ
??0MatExpr@cv@@QEAA@$$QEAV01@@Z
??0MatExpr@cv@@QEAA@AEBV01@@Z
??0MatExpr@cv@@QEAA@AEBVMat@1@@Z
??0MatExpr@cv@@QEAA@PEBVMatOp@1@HAEBVMat@1@11NNAEBV?$Scalar_@N@1@@Z
??0MatExpr@cv@@QEAA@XZ
??0MatOp@cv@@QEAA@AEBV01@@Z
??0MatOp@cv@@QEAA@XZ
??0MatSize@cv@@QEAA@PEAH@Z
??0MatStep@cv@@QEAA@XZ
??0MatStep@cv@@QEAA@_K@Z
??0Matx_AddOp@cv@@QEAA@AEBU01@@Z
??0Matx_AddOp@cv@@QEAA@XZ
??0Matx_DivOp@cv@@QEAA@AEBU01@@Z
??0Matx_DivOp@cv@@QEAA@XZ
??0Matx_MatMulOp@cv@@QEAA@AEBU01@@Z
??0Matx_MatMulOp@cv@@QEAA@XZ
??0Matx_MulOp@cv@@QEAA@AEBU01@@Z
??0Matx_MulOp@cv@@QEAA@XZ
??0Matx_ScaleOp@cv@@QEAA@AEBU01@@Z
??0Matx_ScaleOp@cv@@QEAA@XZ
??0Matx_SubOp@cv@@QEAA@AEBU01@@Z
??0Matx_SubOp@cv@@QEAA@XZ
??0Matx_TOp@cv@@QEAA@AEBU01@@Z
??0Matx_TOp@cv@@QEAA@XZ
??0MinProblemSolver@cv@@QEAA@$$QEAV01@@Z
??0MinProblemSolver@cv@@QEAA@AEBV01@@Z
??0MinProblemSolver@cv@@QEAA@XZ
??0NAryMatIterator@cv@@QEAA@PEAPEBVMat@1@PEAPEAEH@Z
??0NAryMatIterator@cv@@QEAA@PEAPEBVMat@1@PEAV21@H@Z
??0NAryMatIterator@cv@@QEAA@XZ
??0NodeData@instr@cv@@QEAA@AEAV012@@Z
??0NodeData@instr@cv@@QEAA@PEBD0HPEAX_NW4TYPE@12@W4IMPL@12@@Z
??0PCA@cv@@QEAA@$$QEAV01@@Z
??0PCA@cv@@QEAA@AEBV01@@Z
??0PCA@cv@@QEAA@AEBV_InputArray@1@0HH@Z
??0PCA@cv@@QEAA@AEBV_InputArray@1@0HN@Z
??0PCA@cv@@QEAA@XZ
??0ParallelLoopBody@cv@@QEAA@AEBV01@@Z
??0ParallelLoopBody@cv@@QEAA@XZ
??0Platform@ocl@cv@@QEAA@AEBV012@@Z
??0Platform@ocl@cv@@QEAA@XZ
??0PlatformInfo@ocl@cv@@QEAA@AEBV012@@Z
??0PlatformInfo@ocl@cv@@QEAA@PEAX@Z
??0PlatformInfo@ocl@cv@@QEAA@XZ
??0Program@ocl@cv@@QEAA@AEBV012@@Z
??0Program@ocl@cv@@QEAA@AEBVProgramSource@12@AEBV?$basic_string@DU?$char_traits@D@std@@V?$allocator@D@2@@std@@AEAV45@@Z
??0Program@ocl@cv@@QEAA@XZ
??0ProgramSource@ocl@cv@@QEAA@AEBV012@@Z
??0ProgramSource@ocl@cv@@QEAA@AEBV?$basic_string@DU?$char_traits@D@std@@V?$allocator@D@2@@std@@000@Z
??0ProgramSource@ocl@cv@@QEAA@AEBV?$basic_string@DU?$char_traits@D@std@@V?$allocator@D@2@@std@@@Z
??0ProgramSource@ocl@cv@@QEAA@PEBD@Z
??0ProgramSource@ocl@cv@@QEAA@XZ
??0Queue@ocl@cv@@QEAA@AEBV012@@Z
??0Queue@ocl@cv@@QEAA@AEBVContext@12@AEBVDevice@12@@Z
??0Queue@ocl@cv@@QEAA@XZ
??0RNG@cv@@QEAA@XZ
??0RNG@cv@@QEAA@_K@Z
??0RNG_MT19937@cv@@QEAA@I@Z
??0RNG_MT19937@cv@@QEAA@XZ
??0Range@cv@@QEAA@HH@Z
??0Range@cv@@QEAA@XZ
??0Region@details@trace@utils@cv@@QEAA@AEBULocationStaticStorage@01234@@Z
??0RotatedRect@cv@@QEAA@$$QEAV01@@Z
??0RotatedRect@cv@@QEAA@AEBV01@@Z
??0RotatedRect@cv@@QEAA@AEBV?$Point_@M@1@00@Z
??0RotatedRect@cv@@QEAA@AEBV?$Point_@M@1@AEBV?$Size_@M@1@M@Z
??0RotatedRect@cv@@QEAA@XZ
??0SVD@cv@@QEAA@$$QEAV01@@Z
??0SVD@cv@@QEAA@AEBV01@@Z
??0SVD@cv@@QEAA@AEBV_InputArray@1@H@Z
??0SVD@cv@@QEAA@XZ
??0SparseMat@cv@@QEAA@AEBV01@@Z
??0SparseMat@cv@@QEAA@AEBVMat@1@@Z
??0SparseMat@cv@@QEAA@HPEBHH@Z
??0SparseMat@cv@@QEAA@XZ
??0SparseMatConstIterator@cv@@QEAA@AEBV01@@Z
??0SparseMatConstIterator@cv@@QEAA@PEBVSparseMat@1@@Z
??0SparseMatConstIterator@cv@@QEAA@XZ
??0SparseMatIterator@cv@@QEAA@AEBV01@@Z
??0SparseMatIterator@cv@@QEAA@PEAVSparseMat@1@@Z
??0SparseMatIterator@cv@@QEAA@XZ
??0Stream@cuda@cv@@AEAA@AEBU?$Ptr@VImpl@Stream@cuda@cv@@@2@@Z
??0Stream@cuda@cv@@QEAA@$$QEAV012@@Z
??0Stream@cuda@cv@@QEAA@AEBU?$Ptr@VAllocator@GpuMat@cuda@cv@@@2@@Z
??0Stream@cuda@cv@@QEAA@AEBV012@@Z
??0Stream@cuda@cv@@QEAA@XZ
??0TLSDataContainer@cv@@IEAA@XZ
??0TLSDataContainer@cv@@QEAA@AEBV01@@Z
??0TermCriteria@cv@@QEAA@HHN@Z
??0TermCriteria@cv@@QEAA@XZ
??0Texture2D@ogl@cv@@QEAA@$$QEAV012@@Z
??0Texture2D@ogl@cv@@QEAA@AEBV012@@Z
??0Texture2D@ogl@cv@@QEAA@AEBV_InputArray@2@_N@Z
??0Texture2D@ogl@cv@@QEAA@HHW4Format@012@I_N@Z
??0Texture2D@ogl@cv@@QEAA@HHW4Format@012@_N@Z
??0Texture2D@ogl@cv@@QEAA@V?$Size_@H@2@W4Format@012@I_N@Z
??0Texture2D@ogl@cv@@QEAA@V?$Size_@H@2@W4Format@012@_N@Z
??0Texture2D@ogl@cv@@QEAA@XZ
??0TickMeter@cv@@QEAA@XZ
??0Timer@ocl@cv@@QEAA@AEBVQueue@12@@Z
??0TraceManager@details@trace@utils@cv@@QEAA@XZ
??0UMat@cv@@QEAA@$$QEAV01@@Z
??0UMat@cv@@QEAA@AEBV01@@Z
??0UMat@cv@@QEAA@AEBV01@AEBV?$Rect_@H@1@@Z
??0UMat@cv@@QEAA@AEBV01@AEBV?$vector@VRange@cv@@V?$allocator@VRange@cv@@@std@@@std@@@Z
??0UMat@cv@@QEAA@AEBV01@AEBVRange@1@1@Z
??0UMat@cv@@QEAA@AEBV01@PEBVRange@1@@Z
??0UMat@cv@@QEAA@HHHAEBV?$Scalar_@N@1@W4UMatUsageFlags@1@@Z
??0UMat@cv@@QEAA@HHHW4UMatUsageFlags@1@@Z
??0UMat@cv@@QEAA@HPEBHHAEBV?$Scalar_@N@1@W4UMatUsageFlags@1@@Z
??0UMat@cv@@QEAA@HPEBHHW4UMatUsageFlags@1@@Z
??0UMat@cv@@QEAA@V?$Size_@H@1@HAEBV?$Scalar_@N@1@W4UMatUsageFlags@1@@Z
??0UMat@cv@@QEAA@V?$Size_@H@1@HW4UMatUsageFlags@1@@Z
??0UMat@cv@@QEAA@W4UMatUsageFlags@1@@Z
??0UMatData@cv@@QEAA@PEBVMatAllocator@1@@Z
??0UMatDataAutoLock@cv@@QEAA@PEAUUMatData@1@0@Z
??0UMatDataAutoLock@cv@@QEAA@PEAUUMatData@1@@Z
??0WriteStructContext@internal@cv@@QEAA@AEAVFileStorage@2@AEBV?$basic_string@DU?$char_traits@D@std@@V?$allocator@D@2@@std@@H1@Z
??0_InputArray@cv@@QEAA@AEBN@Z
??0_InputArray@cv@@QEAA@AEBV01@@Z
??0_InputArray@cv@@QEAA@AEBV?$vector@VGpuMat@cuda@cv@@V?$allocator@VGpuMat@cuda@cv@@@std@@@std@@@Z
??0_InputArray@cv@@QEAA@AEBV?$vector@VMat@cv@@V?$allocator@VMat@cv@@@std@@@std@@@Z
??0_InputArray@cv@@QEAA@AEBV?$vector@VUMat@cv@@V?$allocator@VUMat@cv@@@std@@@std@@@Z
??0_InputArray@cv@@QEAA@AEBV?$vector@_NV?$allocator@_N@std@@@std@@@Z
??0_InputArray@cv@@QEAA@AEBVBuffer@ogl@1@@Z
??0_InputArray@cv@@QEAA@AEBVGpuMat@cuda@1@@Z
??0_InputArray@cv@@QEAA@AEBVHostMem@cuda@1@@Z
??0_InputArray@cv@@QEAA@AEBVMat@1@@Z
??0_InputArray@cv@@QEAA@AEBVMatExpr@1@@Z
??0_InputArray@cv@@QEAA@AEBVUMat@1@@Z
??0_InputArray@cv@@QEAA@HPEAX@Z
??0_InputArray@cv@@QEAA@XZ
??0_InputOutputArray@cv@@QEAA@$$QEAV01@@Z
??0_InputOutputArray@cv@@QEAA@AEAV?$vector@VMat@cv@@V?$allocator@VMat@cv@@@std@@@std@@@Z
??0_InputOutputArray@cv@@QEAA@AEAV?$vector@VUMat@cv@@V?$allocator@VUMat@cv@@@std@@@std@@@Z
??0_InputOutputArray@cv@@QEAA@AEAVBuffer@ogl@1@@Z
??0_InputOutputArray@cv@@QEAA@AEAVGpuMat@cuda@1@@Z
??0_InputOutputArray@cv@@QEAA@AEAVHostMem@cuda@1@@Z
??0_InputOutputArray@cv@@QEAA@AEAVMat@1@@Z
??0_InputOutputArray@cv@@QEAA@AEAVUMat@1@@Z
??0_InputOutputArray@cv@@QEAA@AEBV01@@Z
??0_InputOutputArray@cv@@QEAA@AEBV?$vector@VGpuMat@cuda@cv@@V?$allocator@VGpuMat@cuda@cv@@@std@@@std@@@Z
??0_InputOutputArray@cv@@QEAA@AEBV?$vector@VMat@cv@@V?$allocator@VMat@cv@@@std@@@std@@@Z
??0_InputOutputArray@cv@@QEAA@AEBV?$vector@VUMat@cv@@V?$allocator@VUMat@cv@@@std@@@std@@@Z
??0_InputOutputArray@cv@@QEAA@AEBVBuffer@ogl@1@@Z
??0_InputOutputArray@cv@@QEAA@AEBVGpuMat@cuda@1@@Z
??0_InputOutputArray@cv@@QEAA@AEBVHostMem@cuda@1@@Z
??0_InputOutputArray@cv@@QEAA@AEBVMat@1@@Z
??0_InputOutputArray@cv@@QEAA@AEBVUMat@1@@Z
??0_InputOutputArray@cv@@QEAA@HPEAX@Z
??0_InputOutputArray@cv@@QEAA@XZ
??0_OutputArray@cv@@QEAA@$$QEAV01@@Z
??0_OutputArray@cv@@QEAA@AEAV?$vector@VGpuMat@cuda@cv@@V?$allocator@VGpuMat@cuda@cv@@@std@@@std@@@Z
??0_OutputArray@cv@@QEAA@AEAV?$vector@VMat@cv@@V?$allocator@VMat@cv@@@std@@@std@@@Z
??0_OutputArray@cv@@QEAA@AEAV?$vector@VUMat@cv@@V?$allocator@VUMat@cv@@@std@@@std@@@Z
??0_OutputArray@cv@@QEAA@AEAVBuffer@ogl@1@@Z
??0_OutputArray@cv@@QEAA@AEAVGpuMat@cuda@1@@Z
??0_OutputArray@cv@@QEAA@AEAVHostMem@cuda@1@@Z
??0_OutputArray@cv@@QEAA@AEAVMat@1@@Z
??0_OutputArray@cv@@QEAA@AEAVUMat@1@@Z
??0_OutputArray@cv@@QEAA@AEBV01@@Z
??0_OutputArray@cv@@QEAA@AEBV?$vector@VMat@cv@@V?$allocator@VMat@cv@@@std@@@std@@@Z
??0_OutputArray@cv@@QEAA@AEBV?$vector@VUMat@cv@@V?$allocator@VUMat@cv@@@std@@@std@@@Z
??0_OutputArray@cv@@QEAA@AEBVBuffer@ogl@1@@Z
??0_OutputArray@cv@@QEAA@AEBVGpuMat@cuda@1@@Z
??0_OutputArray@cv@@QEAA@AEBVHostMem@cuda@1@@Z
??0_OutputArray@cv@@QEAA@AEBVMat@1@@Z
??0_OutputArray@cv@@QEAA@AEBVUMat@1@@Z
??0_OutputArray@cv@@QEAA@HPEAX@Z
??0_OutputArray@cv@@QEAA@XZ
??0softdouble@cv@@QEAA@AEBU01@@Z
??0softdouble@cv@@QEAA@H@Z
??0softdouble@cv@@QEAA@I@Z
??0softdouble@cv@@QEAA@N@Z
??0softdouble@cv@@QEAA@XZ
??0softdouble@cv@@QEAA@_J@Z
??0softdouble@cv@@QEAA@_K@Z
??0softfloat@cv@@QEAA@AEBU01@@Z
??0softfloat@cv@@QEAA@H@Z
??0softfloat@cv@@QEAA@I@Z
??0softfloat@cv@@QEAA@M@Z
??0softfloat@cv@@QEAA@XZ
??0softfloat@cv@@QEAA@_J@Z
??0softfloat@cv@@QEAA@_K@Z
??1Algorithm@cv@@UEAA@XZ
??1Allocator@GpuMat@cuda@cv@@UEAA@XZ
??1Arrays@ogl@cv@@QEAA@XZ
??1AsyncArray@cv@@QEAA@XZ
??1AsyncPromise@cv@@QEAA@XZ
??1Buffer@ogl@cv@@QEAA@XZ
??1BufferPool@cuda@cv@@QEAA@XZ
??1CommandLineParser@cv@@QEAA@XZ
??1ConjGradSolver@cv@@UEAA@XZ
??1Context@ocl@cv@@QEAA@XZ
??1DCT2D@hal@cv@@UEAA@XZ
??1DFT1D@hal@cv@@UEAA@XZ
??1DFT2D@hal@cv@@UEAA@XZ
??1Device@ocl@cv@@QEAA@XZ
??1DownhillSolver@cv@@UEAA@XZ
??1Event@cuda@cv@@QEAA@XZ
??1Exception@cv@@UEAA@XZ
??1FileLock@fs@utils@cv@@QEAA@XZ
??1FileStorage@cv@@UEAA@XZ
??1Formatted@cv@@UEAA@XZ
??1Formatter@cv@@UEAA@XZ
??1Function@MinProblemSolver@cv@@UEAA@XZ
??1GpuMat@cuda@cv@@QEAA@XZ
??1Hdr@SparseMat@cv@@QEAA@XZ
??1HostMem@cuda@cv@@QEAA@XZ
??1Image2D@ocl@cv@@QEAA@XZ
??1Kernel@ocl@cv@@QEAA@XZ
??1LDA@cv@@QEAA@XZ
??1Mat@cv@@QEAA@XZ
??1MatAllocator@cv@@UEAA@XZ
??1MatExpr@cv@@QEAA@XZ
??1MatOp@cv@@UEAA@XZ
??1MinProblemSolver@cv@@UEAA@XZ
??1NodeData@instr@cv@@QEAA@XZ
??1PCA@cv@@QEAA@XZ
??1ParallelLoopBody@cv@@UEAA@XZ
??1Platform@ocl@cv@@QEAA@XZ
??1PlatformInfo@ocl@cv@@QEAA@XZ
??1Program@ocl@cv@@QEAA@XZ
??1ProgramSource@ocl@cv@@QEAA@XZ
??1Queue@ocl@cv@@QEAA@XZ
??1Region@details@trace@utils@cv@@QEAA@XZ
??1SVD@cv@@QEAA@XZ
??1SparseMat@cv@@QEAA@XZ
??1Stream@cuda@cv@@QEAA@XZ
??1TLSDataContainer@cv@@MEAA@XZ
??1Texture2D@ogl@cv@@QEAA@XZ
??1Timer@ocl@cv@@QEAA@XZ
??1TraceManager@details@trace@utils@cv@@QEAA@XZ
??1UMat@cv@@QEAA@XZ
??1UMatData@cv@@QEAA@XZ
??1UMatDataAutoLock@cv@@QEAA@XZ
??1WriteStructContext@internal@cv@@QEAA@XZ
??1_InputArray@cv@@QEAA@XZ
??1_InputOutputArray@cv@@QEAA@XZ
??1_OutputArray@cv@@QEAA@XZ
??4Algorithm@cv@@QEAAAEAV01@AEBV01@@Z
??4Allocator@GpuMat@cuda@cv@@QEAAAEAV0123@AEBV0123@@Z
??4Arrays@ogl@cv@@QEAAAEAV012@$$QEAV012@@Z
??4Arrays@ogl@cv@@QEAAAEAV012@AEBV012@@Z
??4AsyncArray@cv@@QEAAAEAV01@$$QEAV01@@Z
??4AsyncArray@cv@@QEAAAEAV01@AEBV01@@Z
??4AsyncPromise@cv@@QEAAAEAV01@$$QEAV01@@Z
??4AsyncPromise@cv@@QEAAAEAV01@AEBV01@@Z
??4Buffer@ogl@cv@@QEAAAEAV012@$$QEAV012@@Z
??4Buffer@ogl@cv@@QEAAAEAV012@AEBV012@@Z
??4BufferPool@cuda@cv@@QEAAAEAV012@$$QEAV012@@Z
??4BufferPool@cuda@cv@@QEAAAEAV012@AEBV012@@Z
??4CommandLineParser@cv@@QEAAAEAV01@AEBV01@@Z
??4ConjGradSolver@cv@@QEAAAEAV01@$$QEAV01@@Z
??4ConjGradSolver@cv@@QEAAAEAV01@AEBV01@@Z
??4Context@ocl@cv@@QEAAAEAV012@AEBV012@@Z
??4DCT2D@hal@cv@@QEAAAEAU012@AEBU012@@Z
??4DFT1D@hal@cv@@QEAAAEAU012@AEBU012@@Z
??4DFT2D@hal@cv@@QEAAAEAU012@AEBU012@@Z
??4DMatch@cv@@QEAAAEAV01@$$QEAV01@@Z
??4DMatch@cv@@QEAAAEAV01@AEBV01@@Z
??4Device@ocl@cv@@QEAAAEAV012@AEBV012@@Z
??4DeviceInfo@cuda@cv@@QEAAAEAV012@$$QEAV012@@Z
??4DeviceInfo@cuda@cv@@QEAAAEAV012@AEBV012@@Z
??4DownhillSolver@cv@@QEAAAEAV01@$$QEAV01@@Z
??4DownhillSolver@cv@@QEAAAEAV01@AEBV01@@Z
??4Event@cuda@cv@@QEAAAEAV012@$$QEAV012@@Z
??4Event@cuda@cv@@QEAAAEAV012@AEBV012@@Z
??4Exception@cv@@QEAAAEAV01@AEBV01@@Z
??4FileNode@cv@@QEAAAEAV01@AEBV01@@Z
??4FileNodeIterator@cv@@QEAAAEAV01@AEBV01@@Z
??4FileStorage@cv@@QEAAAEAV01@AEBV01@@Z
??4Formatted@cv@@QEAAAEAV01@AEBV01@@Z
??4Formatter@cv@@QEAAAEAV01@AEBV01@@Z
??4Function@MinProblemSolver@cv@@QEAAAEAV012@AEBV012@@Z
??4GpuMat@cuda@cv@@QEAAAEAV012@AEBV012@@Z
??4Hamming@cv@@QEAAAEAU01@$$QEAU01@@Z
??4Hamming@cv@@QEAAAEAU01@AEBU01@@Z
??4Hdr@SparseMat@cv@@QEAAAEAU012@$$QEAU012@@Z
??4Hdr@SparseMat@cv@@QEAAAEAU012@AEBU012@@Z
??4HostMem@cuda@cv@@QEAAAEAV012@AEBV012@@Z
??4Image2D@ocl@cv@@QEAAAEAV012@AEBV012@@Z
??4Kernel@ocl@cv@@QEAAAEAV012@AEBV012@@Z
??4KernelArg@ocl@cv@@QEAAAEAV012@$$QEAV012@@Z
??4KernelArg@ocl@cv@@QEAAAEAV012@AEBV012@@Z
??4KeyPoint@cv@@QEAAAEAV01@$$QEAV01@@Z
??4KeyPoint@cv@@QEAAAEAV01@AEBV01@@Z
??4LDA@cv@@QEAAAEAV01@AEBV01@@Z
??4Mat@cv@@QEAAAEAV01@$$QEAV01@@Z
??4Mat@cv@@QEAAAEAV01@AEBV01@@Z
??4Mat@cv@@QEAAAEAV01@AEBV?$Scalar_@N@1@@Z
??4Mat@cv@@QEAAAEAV01@AEBVMatExpr@1@@Z
??4MatAllocator@cv@@QEAAAEAV01@AEBV01@@Z
??4MatConstIterator@cv@@QEAAAEAV01@AEBV01@@Z
??4MatExpr@cv@@QEAAAEAV01@$$QEAV01@@Z
??4MatExpr@cv@@QEAAAEAV01@AEBV01@@Z
??4MatOp@cv@@QEAAAEAV01@AEBV01@@Z
??4MatSize@cv@@QEAAAEAU01@$$QEAU01@@Z
??4MatSize@cv@@QEAAAEAU01@AEBU01@@Z
??4MatStep@cv@@QEAAAEAU01@_K@Z
??4Matx_AddOp@cv@@QEAAAEAU01@AEBU01@@Z
??4Matx_DivOp@cv@@QEAAAEAU01@AEBU01@@Z
??4Matx_MatMulOp@cv@@QEAAAEAU01@AEBU01@@Z
??4Matx_MulOp@cv@@QEAAAEAU01@AEBU01@@Z
??4Matx_ScaleOp@cv@@QEAAAEAU01@AEBU01@@Z
??4Matx_SubOp@cv@@QEAAAEAU01@AEBU01@@Z
??4Matx_TOp@cv@@QEAAAEAU01@AEBU01@@Z
??4MinProblemSolver@cv@@QEAAAEAV01@$$QEAV01@@Z
??4MinProblemSolver@cv@@QEAAAEAV01@AEBV01@@Z
??4Moments@cv@@QEAAAEAV01@$$QEAV01@@Z
??4Moments@cv@@QEAAAEAV01@AEBV01@@Z
??4NAryMatIterator@cv@@QEAAAEAV01@$$QEAV01@@Z
??4NAryMatIterator@cv@@QEAAAEAV01@AEBV01@@Z
??4Node@SparseMat@cv@@QEAAAEAU012@$$QEAU012@@Z
??4Node@SparseMat@cv@@QEAAAEAU012@AEBU012@@Z
??4NodeData@instr@cv@@QEAAAEAV012@AEBV012@@Z
??4PCA@cv@@QEAAAEAV01@$$QEAV01@@Z
??4PCA@cv@@QEAAAEAV01@AEBV01@@Z
??4ParallelLoopBody@cv@@QEAAAEAV01@AEBV01@@Z
??4Platform@ocl@cv@@QEAAAEAV012@AEBV012@@Z
??4PlatformInfo@ocl@cv@@QEAAAEAV012@AEBV012@@Z
??4Program@ocl@cv@@QEAAAEAV012@AEBV012@@Z
??4ProgramEntry@internal@ocl@cv@@QEAAAEAU0123@$$QEAU0123@@Z
??4ProgramEntry@internal@ocl@cv@@QEAAAEAU0123@AEBU0123@@Z
??4ProgramSource@ocl@cv@@QEAAAEAV012@AEBV012@@Z
??4Queue@ocl@cv@@QEAAAEAV012@AEBV012@@Z
??4RNG@cv@@QEAAAEAV01@$$QEAV01@@Z
??4RNG@cv@@QEAAAEAV01@AEBV01@@Z
??4RNG_MT19937@cv@@QEAAAEAV01@$$QEAV01@@Z
??4RNG_MT19937@cv@@QEAAAEAV01@AEBV01@@Z
??4Range@cv@@QEAAAEAV01@$$QEAV01@@Z
??4Range@cv@@QEAAAEAV01@AEBV01@@Z
??4RotatedRect@cv@@QEAAAEAV01@$$QEAV01@@Z
??4RotatedRect@cv@@QEAAAEAV01@AEBV01@@Z
??4SVD@cv@@QEAAAEAV01@$$QEAV01@@Z
??4SVD@cv@@QEAAAEAV01@AEBV01@@Z
??4SparseMat@cv@@QEAAAEAV01@AEBV01@@Z
??4SparseMat@cv@@QEAAAEAV01@AEBVMat@1@@Z
??4SparseMatConstIterator@cv@@QEAAAEAV01@AEBV01@@Z
??4SparseMatIterator@cv@@QEAAAEAV01@AEBV01@@Z
??4Stream@cuda@cv@@QEAAAEAV012@$$QEAV012@@Z
??4Stream@cuda@cv@@QEAAAEAV012@AEBV012@@Z
??4TLSDataContainer@cv@@QEAAAEAV01@AEBV01@@Z
??4TargetArchs@cuda@cv@@QEAAAEAV012@$$QEAV012@@Z
??4TargetArchs@cuda@cv@@QEAAAEAV012@AEBV012@@Z
??4TermCriteria@cv@@QEAAAEAV01@$$QEAV01@@Z
??4TermCriteria@cv@@QEAAAEAV01@AEBV01@@Z
??4Texture2D@ogl@cv@@QEAAAEAV012@$$QEAV012@@Z
??4Texture2D@ogl@cv@@QEAAAEAV012@AEBV012@@Z
??4TickMeter@cv@@QEAAAEAV01@$$QEAV01@@Z
??4TickMeter@cv@@QEAAAEAV01@AEBV01@@Z
??4TraceArg@details@trace@utils@cv@@QEAAAEAU01234@$$QEAU01234@@Z
??4TraceArg@details@trace@utils@cv@@QEAAAEAU01234@AEBU01234@@Z
??4UMat@cv@@QEAAAEAV01@$$QEAV01@@Z
??4UMat@cv@@QEAAAEAV01@AEBV01@@Z
??4UMat@cv@@QEAAAEAV01@AEBV?$Scalar_@N@1@@Z
??4UMatData@cv@@QEAAAEAU01@AEBU01@@Z
??4UMatDataAutoLock@cv@@QEAAAEAU01@AEBU01@@Z
??4WriteStructContext@internal@cv@@QEAAAEAV012@AEBV012@@Z
??4_InputArray@cv@@QEAAAEAV01@AEBV01@@Z
??4_InputOutputArray@cv@@QEAAAEAV01@$$QEAV01@@Z
??4_InputOutputArray@cv@@QEAAAEAV01@AEBV01@@Z
??4_OutputArray@cv@@QEAAAEAV01@$$QEAV01@@Z
??4_OutputArray@cv@@QEAAAEAV01@AEBV01@@Z
??4softdouble@cv@@QEAAAEAU01@AEBU01@@Z
??4softfloat@cv@@QEAAAEAU01@AEBU01@@Z
??6cv@@YAAEAVFileStorage@0@AEAV10@AEBV?$basic_string@DU?$char_traits@D@std@@V?$allocator@D@2@@std@@@Z
??8MatSize@cv@@QEBA_NAEBU01@@Z
??8RNG@cv@@QEBA_NAEBV01@@Z
??8cv@@YA?AVMatExpr@0@AEBVMat@0@0@Z
??8cv@@YA?AVMatExpr@0@AEBVMat@0@N@Z
??8cv@@YA?AVMatExpr@0@NAEBVMat@0@@Z
??8cv@@YA_NAEBVFileNodeIterator@0@0@Z
??8softdouble@cv@@QEBA_NAEBU01@@Z
??8softfloat@cv@@QEBA_NAEBU01@@Z
??9MatSize@cv@@QEBA_NAEBU01@@Z
??9cv@@YA?AVMatExpr@0@AEBVMat@0@0@Z
??9cv@@YA?AVMatExpr@0@AEBVMat@0@N@Z
??9cv@@YA?AVMatExpr@0@NAEBVMat@0@@Z
??9cv@@YA_NAEBVFileNodeIterator@0@0@Z
??9softdouble@cv@@QEBA_NAEBU01@@Z
??9softfloat@cv@@QEBA_NAEBU01@@Z
??AFileNode@cv@@QEBA?AV01@AEBV?$basic_string@DU?$char_traits@D@std@@V?$allocator@D@2@@std@@@Z
??AFileNode@cv@@QEBA?AV01@H@Z
??AFileNode@cv@@QEBA?AV01@PEBD@Z
??AFileStorage@cv@@QEBA?AVFileNode@1@AEBV?$basic_string@DU?$char_traits@D@std@@V?$allocator@D@2@@std@@@Z
??AFileStorage@cv@@QEBA?AVFileNode@1@PEBD@Z
??AMatConstIterator@cv@@QEBAPEBE_J@Z
??AMatSize@cv@@QEAAAEAHH@Z
??AMatSize@cv@@QEBAAEBHH@Z
??AMatStep@cv@@QEAAAEA_KH@Z
??AMatStep@cv@@QEBAAEB_KH@Z
??BFileNode@cv@@QEBA?AV?$basic_string@DU?$char_traits@D@std@@V?$allocator@D@2@@std@@XZ
??BFileNode@cv@@QEBAHXZ
??BFileNode@cv@@QEBAMXZ
??BFileNode@cv@@QEBANXZ
??BMatExpr@cv@@QEBA?AVMat@1@XZ
??BMatSize@cv@@QEBAPEBHXZ
??BMatStep@cv@@QEBA_KXZ
??BProgramEntry@internal@ocl@cv@@QEBAAEAVProgramSource@23@XZ
??BRNG@cv@@QEAACXZ
??BRNG@cv@@QEAAEXZ
??BRNG@cv@@QEAAFXZ
??BRNG@cv@@QEAAGXZ
??BRNG@cv@@QEAAHXZ
??BRNG@cv@@QEAAIXZ
??BRNG@cv@@QEAAMXZ
??BRNG@cv@@QEAANXZ
??BRNG_MT19937@cv@@QEAAHXZ
??BRNG_MT19937@cv@@QEAAIXZ
??BRNG_MT19937@cv@@QEAAMXZ
??BRNG_MT19937@cv@@QEAANXZ
??BStream@cuda@cv@@QEBAP8012@EBAXXZXZ
??Bsoftdouble@cv@@QEBA?AUsoftfloat@1@XZ
??Bsoftdouble@cv@@QEBANXZ
??Bsoftfloat@cv@@QEBA?AUsoftdouble@1@XZ
??Bsoftfloat@cv@@QEBAMXZ
??DFileNodeIterator@cv@@QEBA?AVFileNode@1@XZ
??DMatConstIterator@cv@@QEBAPEBEXZ
??Dcv@@YA?AVMatExpr@0@AEBV10@0@Z
??Dcv@@YA?AVMatExpr@0@AEBV10@AEBVMat@0@@Z
??Dcv@@YA?AVMatExpr@0@AEBV10@N@Z
??Dcv@@YA?AVMatExpr@0@AEBVMat@0@0@Z
??Dcv@@YA?AVMatExpr@0@AEBVMat@0@AEBV10@@Z
??Dcv@@YA?AVMatExpr@0@AEBVMat@0@N@Z
??Dcv@@YA?AVMatExpr@0@NAEBV10@@Z
??Dcv@@YA?AVMatExpr@0@NAEBVMat@0@@Z
??Dsoftdouble@cv@@QEBA?AU01@AEBU01@@Z
??Dsoftfloat@cv@@QEBA?AU01@AEBU01@@Z
??EFileNodeIterator@cv@@QEAA?AV01@H@Z
??EFileNodeIterator@cv@@QEAAAEAV01@XZ
??EMatConstIterator@cv@@QEAA?AV01@H@Z
??EMatConstIterator@cv@@QEAAAEAV01@XZ
??ENAryMatIterator@cv@@QEAA?AV01@H@Z
??ENAryMatIterator@cv@@QEAAAEAV01@XZ
??ESparseMatConstIterator@cv@@QEAA?AV01@H@Z
??ESparseMatConstIterator@cv@@QEAAAEAV01@XZ
??ESparseMatIterator@cv@@QEAA?AV01@H@Z
??ESparseMatIterator@cv@@QEAAAEAV01@XZ
??FMatConstIterator@cv@@QEAA?AV01@H@Z
??FMatConstIterator@cv@@QEAAAEAV01@XZ
??Gcv@@YA?AVMatExpr@0@AEBV10@0@Z
??Gcv@@YA?AVMatExpr@0@AEBV10@@Z
??Gcv@@YA?AVMatExpr@0@AEBV10@AEBV?$Scalar_@N@0@@Z
??Gcv@@YA?AVMatExpr@0@AEBV10@AEBVMat@0@@Z
??Gcv@@YA?AVMatExpr@0@AEBV?$Scalar_@N@0@AEBV10@@Z
??Gcv@@YA?AVMatExpr@0@AEBV?$Scalar_@N@0@AEBVMat@0@@Z
??Gcv@@YA?AVMatExpr@0@AEBVMat@0@0@Z
??Gcv@@YA?AVMatExpr@0@AEBVMat@0@@Z
??Gcv@@YA?AVMatExpr@0@AEBVMat@0@AEBV10@@Z
??Gcv@@YA?AVMatExpr@0@AEBVMat@0@AEBV?$Scalar_@N@0@@Z
??Gsoftdouble@cv@@QEBA?AU01@AEBU01@@Z
??Gsoftdouble@cv@@QEBA?AU01@XZ
??Gsoftfloat@cv@@QEBA?AU01@AEBU01@@Z
??Gsoftfloat@cv@@QEBA?AU01@XZ
??Hcv@@YA?AVMatExpr@0@AEBV10@0@Z
??Hcv@@YA?AVMatExpr@0@AEBV10@AEBV?$Scalar_@N@0@@Z
??Hcv@@YA?AVMatExpr@0@AEBV10@AEBVMat@0@@Z
??Hcv@@YA?AVMatExpr@0@AEBV?$Scalar_@N@0@AEBV10@@Z
??Hcv@@YA?AVMatExpr@0@AEBV?$Scalar_@N@0@AEBVMat@0@@Z
??Hcv@@YA?AVMatExpr@0@AEBVMat@0@0@Z
??Hcv@@YA?AVMatExpr@0@AEBVMat@0@AEBV10@@Z
??Hcv@@YA?AVMatExpr@0@AEBVMat@0@AEBV?$Scalar_@N@0@@Z
??Hsoftdouble@cv@@QEBA?AU01@AEBU01@@Z
??Hsoftfloat@cv@@QEBA?AU01@AEBU01@@Z
??Icv@@YA?AVMatExpr@0@AEBV?$Scalar_@N@0@AEBVMat@0@@Z
??Icv@@YA?AVMatExpr@0@AEBVMat@0@0@Z
??Icv@@YA?AVMatExpr@0@AEBVMat@0@AEBV?$Scalar_@N@0@@Z
??Kcv@@YA?AVMatExpr@0@AEBV10@0@Z
??Kcv@@YA?AVMatExpr@0@AEBV10@AEBVMat@0@@Z
??Kcv@@YA?AVMatExpr@0@AEBV10@N@Z
??Kcv@@YA?AVMatExpr@0@AEBVMat@0@0@Z
??Kcv@@YA?AVMatExpr@0@AEBVMat@0@AEBV10@@Z
??Kcv@@YA?AVMatExpr@0@AEBVMat@0@N@Z
??Kcv@@YA?AVMatExpr@0@NAEBV10@@Z
??Kcv@@YA?AVMatExpr@0@NAEBVMat@0@@Z
??Ksoftdouble@cv@@QEBA?AU01@AEBU01@@Z
??Ksoftfloat@cv@@QEBA?AU01@AEBU01@@Z
??Lsoftdouble@cv@@QEBA?AU01@AEBU01@@Z
??Lsoftfloat@cv@@QEBA?AU01@AEBU01@@Z
??MDMatch@cv@@QEBA_NAEBV01@@Z
??Mcv@@YA?AVMatExpr@0@AEBVMat@0@0@Z
??Mcv@@YA?AVMatExpr@0@AEBVMat@0@N@Z
??Mcv@@YA?AVMatExpr@0@NAEBVMat@0@@Z
??Msoftdouble@cv@@QEBA_NAEBU01@@Z
??Msoftfloat@cv@@QEBA_NAEBU01@@Z
??Ncv@@YA?AVMatExpr@0@AEBVMat@0@0@Z
??Ncv@@YA?AVMatExpr@0@AEBVMat@0@N@Z
??Ncv@@YA?AVMatExpr@0@NAEBVMat@0@@Z
??Nsoftdouble@cv@@QEBA_NAEBU01@@Z
??Nsoftfloat@cv@@QEBA_NAEBU01@@Z
??Ocv@@YA?AVMatExpr@0@AEBVMat@0@0@Z
??Ocv@@YA?AVMatExpr@0@AEBVMat@0@N@Z
??Ocv@@YA?AVMatExpr@0@NAEBVMat@0@@Z
??Osoftdouble@cv@@QEBA_NAEBU01@@Z
??Osoftfloat@cv@@QEBA_NAEBU01@@Z
??Pcv@@YA?AVMatExpr@0@AEBVMat@0@0@Z
??Pcv@@YA?AVMatExpr@0@AEBVMat@0@N@Z
??Pcv@@YA?AVMatExpr@0@NAEBVMat@0@@Z
??Psoftdouble@cv@@QEBA_NAEBU01@@Z
??Psoftfloat@cv@@QEBA_NAEBU01@@Z
??R?$DefaultDeleter@UCvMat@@@cv@@QEBAXPEAUCvMat@@@Z
??R?$DefaultDeleter@UCvMatND@@@cv@@QEBAXPEAUCvMatND@@@Z
??R?$DefaultDeleter@UCvMemStorage@@@cv@@QEBAXPEAUCvMemStorage@@@Z
??R?$DefaultDeleter@UCvSparseMat@@@cv@@QEBAXPEAUCvSparseMat@@@Z
??R?$DefaultDeleter@U_IplImage@@@cv@@QEBAXPEAU_IplImage@@@Z
??RGpuMat@cuda@cv@@QEBA?AV012@V?$Rect_@H@2@@Z
??RGpuMat@cuda@cv@@QEBA?AV012@VRange@2@0@Z
??RHamming@cv@@QEBAHPEBE0H@Z
??RMat@cv@@QEBA?AV01@AEBV?$Rect_@H@1@@Z
??RMat@cv@@QEBA?AV01@AEBV?$vector@VRange@cv@@V?$allocator@VRange@cv@@@std@@@std@@@Z
??RMat@cv@@QEBA?AV01@PEBVRange@1@@Z
??RMat@cv@@QEBA?AV01@VRange@1@0@Z
??RMatExpr@cv@@QEBA?AV01@AEBV?$Rect_@H@1@@Z
??RMatExpr@cv@@QEBA?AV01@AEBVRange@1@0@Z
??RMatSize@cv@@QEBA?AV?$Size_@H@1@XZ
??RPCA@cv@@QEAAAEAV01@AEBV_InputArray@1@0HH@Z
??RPCA@cv@@QEAAAEAV01@AEBV_InputArray@1@0HN@Z
??RRNG@cv@@QEAAII@Z
??RRNG@cv@@QEAAIXZ
??RRNG_MT19937@cv@@QEAAII@Z
??RRNG_MT19937@cv@@QEAAIXZ
??RSVD@cv@@QEAAAEAV01@AEBV_InputArray@1@H@Z
??RUMat@cv@@QEBA?AV01@AEBV?$Rect_@H@1@@Z
??RUMat@cv@@QEBA?AV01@AEBV?$vector@VRange@cv@@V?$allocator@VRange@cv@@@std@@@std@@@Z
??RUMat@cv@@QEBA?AV01@PEBVRange@1@@Z
??RUMat@cv@@QEBA?AV01@VRange@1@0@Z
??Scv@@YA?AVMatExpr@0@AEBVMat@0@@Z
??Tcv@@YA?AVMatExpr@0@AEBV?$Scalar_@N@0@AEBVMat@0@@Z
??Tcv@@YA?AVMatExpr@0@AEBVMat@0@0@Z
??Tcv@@YA?AVMatExpr@0@AEBVMat@0@AEBV?$Scalar_@N@0@@Z
??Ucv@@YA?AVMatExpr@0@AEBV?$Scalar_@N@0@AEBVMat@0@@Z
??Ucv@@YA?AVMatExpr@0@AEBVMat@0@0@Z
??Ucv@@YA?AVMatExpr@0@AEBVMat@0@AEBV?$Scalar_@N@0@@Z
??Xsoftdouble@cv@@QEAAAEAU01@AEBU01@@Z
??Xsoftfloat@cv@@QEAAAEAU01@AEBU01@@Z
??YFileNodeIterator@cv@@QEAAAEAV01@H@Z
??YMatConstIterator@cv@@QEAAAEAV01@_J@Z
??Ysoftdouble@cv@@QEAAAEAU01@AEBU01@@Z
??Ysoftfloat@cv@@QEAAAEAU01@AEBU01@@Z
??ZMatConstIterator@cv@@QEAAAEAV01@_J@Z
??Zsoftdouble@cv@@QEAAAEAU01@AEBU01@@Z
??Zsoftfloat@cv@@QEAAAEAU01@AEBU01@@Z
??_0softdouble@cv@@QEAAAEAU01@AEBU01@@Z
??_0softfloat@cv@@QEAAAEAU01@AEBU01@@Z
??_1softdouble@cv@@QEAAAEAU01@AEBU01@@Z
??_1softfloat@cv@@QEAAAEAU01@AEBU01@@Z
??_FEvent@cuda@cv@@QEAAXXZ
??_FGpuMat@cuda@cv@@QEAAXXZ
??_FHostMem@cuda@cv@@QEAAXXZ
??_FLDA@cv@@QEAAXXZ
??_FNodeData@instr@cv@@QEAAXXZ
??_FUMat@cv@@QEAAXXZ
?Cholesky32f@hal@cv@@YA_NPEAM_KH01H@Z
?Cholesky64f@hal@cv@@YA_NPEAN_KH01H@Z
?Cholesky@cv@@YA_NPEAM_KH01H@Z
?Cholesky@cv@@YA_NPEAN_KH01H@Z
?Cholesky@hal@cv@@YA_NPEAM_KH01H@Z
?Cholesky@hal@cv@@YA_NPEAN_KH01H@Z
?Constant@KernelArg@ocl@cv@@SA?AV123@AEBVMat@3@@Z
?ECCEnabled@DeviceInfo@cuda@cv@@QEBA_NXZ
?LU32f@hal@cv@@YAHPEAM_KH01H@Z
?LU64f@hal@cv@@YAHPEAN_KH01H@Z
?LU@cv@@YAHPEAM_KH01H@Z
?LU@cv@@YAHPEAN_KH01H@Z
?LU@hal@cv@@YAHPEAM_KH01H@Z
?LU@hal@cv@@YAHPEAN_KH01H@Z
?LUT@cv@@YAXAEBV_InputArray@1@0AEBV_OutputArray@1@@Z
?Local@KernelArg@ocl@cv@@SA?AV123@_K@Z
?Mahalanobis@cv@@YANAEBV_InputArray@1@00@Z
?Null@Stream@cuda@cv@@SAAEAV123@XZ
?OpenCLVersion@Device@ocl@cv@@QEBA?AV?$basic_string@DU?$char_traits@D@std@@V?$allocator@D@2@@std@@XZ
?OpenCL_C_Version@Device@ocl@cv@@QEBA?AV?$basic_string@DU?$char_traits@D@std@@V?$allocator@D@2@@std@@XZ
?PCABackProject@cv@@YAXAEBV_InputArray@1@00AEBV_OutputArray@1@@Z
?PCACompute@cv@@YAXAEBV_InputArray@1@AEBV_InputOutputArray@1@AEBV_OutputArray@1@2H@Z
?PCACompute@cv@@YAXAEBV_InputArray@1@AEBV_InputOutputArray@1@AEBV_OutputArray@1@2N@Z
?PCACompute@cv@@YAXAEBV_InputArray@1@AEBV_InputOutputArray@1@AEBV_OutputArray@1@H@Z
?PCACompute@cv@@YAXAEBV_InputArray@1@AEBV_InputOutputArray@1@AEBV_OutputArray@1@N@Z
?PCAProject@cv@@YAXAEBV_InputArray@1@00AEBV_OutputArray@1@@Z
?PSNR@cv@@YANAEBV_InputArray@1@0N@Z
?PtrReadOnly@KernelArg@ocl@cv@@SA?AV123@AEBVUMat@3@@Z
?PtrReadWrite@KernelArg@ocl@cv@@SA?AV123@AEBVUMat@3@@Z
?PtrWriteOnly@KernelArg@ocl@cv@@SA?AV123@AEBVUMat@3@@Z
?QR32f@hal@cv@@YAHPEAM_KHHH010@Z
?QR64f@hal@cv@@YAHPEAN_KHHH010@Z
?ReadOnly@KernelArg@ocl@cv@@SA?AV123@AEBVUMat@3@HH@Z
?ReadOnlyNoSize@KernelArg@ocl@cv@@SA?AV123@AEBVUMat@3@HH@Z
?ReadWrite@KernelArg@ocl@cv@@SA?AV123@AEBVUMat@3@HH@Z
?ReadWriteNoSize@KernelArg@ocl@cv@@SA?AV123@AEBVUMat@3@HH@Z
?SVBackSubst@cv@@YAXAEBV_InputArray@1@000AEBV_OutputArray@1@@Z
?SVD32f@hal@cv@@YAXPEAM_K00101HHH@Z
?SVD64f@hal@cv@@YAXPEAN_K00101HHH@Z
?SVDecomp@cv@@YAXAEBV_InputArray@1@AEBV_OutputArray@1@11H@Z
?WriteOnly@KernelArg@ocl@cv@@SA?AV123@AEBVUMat@3@HH@Z
?WriteOnlyNoSize@KernelArg@ocl@cv@@SA?AV123@AEBVUMat@3@HH@Z
?__autoclassinit2@AsyncArray@cv@@QEAAX_K@Z
?__autoclassinit2@AsyncPromise@cv@@QEAAX_K@Z
?__autoclassinit2@CommandLineParser@cv@@QEAAX_K@Z
?__autoclassinit2@Context@ocl@cv@@QEAAX_K@Z
?__autoclassinit2@Device@ocl@cv@@QEAAX_K@Z
?__autoclassinit2@FileLock@fs@utils@cv@@QEAAX_K@Z
?__autoclassinit2@FileNode@cv@@QEAAX_K@Z
?__autoclassinit2@FileNodeIterator@cv@@QEAAX_K@Z
?__autoclassinit2@GpuMat@cuda@cv@@QEAAX_K@Z
?__autoclassinit2@HostMem@cuda@cv@@QEAAX_K@Z
?__autoclassinit2@Image2D@ocl@cv@@QEAAX_K@Z
?__autoclassinit2@Kernel@ocl@cv@@QEAAX_K@Z
?__autoclassinit2@KernelArg@ocl@cv@@QEAAX_K@Z
?__autoclassinit2@LDA@cv@@QEAAX_K@Z
?__autoclassinit2@Mat@cv@@QEAAX_K@Z
?__autoclassinit2@MatConstIterator@cv@@QEAAX_K@Z
?__autoclassinit2@MatExpr@cv@@QEAAX_K@Z
?__autoclassinit2@NAryMatIterator@cv@@QEAAX_K@Z
?__autoclassinit2@NodeData@instr@cv@@QEAAX_K@Z
?__autoclassinit2@PCA@cv@@QEAAX_K@Z
?__autoclassinit2@Platform@ocl@cv@@QEAAX_K@Z
?__autoclassinit2@PlatformInfo@ocl@cv@@QEAAX_K@Z
?__autoclassinit2@Program@ocl@cv@@QEAAX_K@Z
?__autoclassinit2@ProgramSource@ocl@cv@@QEAAX_K@Z
?__autoclassinit2@Queue@ocl@cv@@QEAAX_K@Z
?__autoclassinit2@Region@details@trace@utils@cv@@QEAAX_K@Z
?__autoclassinit2@SVD@cv@@QEAAX_K@Z
?__autoclassinit2@SparseMat@cv@@QEAAX_K@Z
?__autoclassinit2@SparseMatConstIterator@cv@@QEAAX_K@Z
?__autoclassinit2@SparseMatIterator@cv@@QEAAX_K@Z
?__autoclassinit2@UMat@cv@@QEAAX_K@Z
?__autoclassinit2@WriteStructContext@internal@cv@@QEAAX_K@Z
?__autoclassinit2@_InputArray@cv@@QEAAX_K@Z
?__autoclassinit2@_InputOutputArray@cv@@QEAAX_K@Z
?__autoclassinit2@_OutputArray@cv@@QEAAX_K@Z
?_getImpl@AsyncArray@cv@@QEBAPEAXXZ
?_getImpl@AsyncPromise@cv@@QEBAPEAXXZ
?about@CommandLineParser@cv@@QEAAXAEBV?$basic_string@DU?$char_traits@D@std@@V?$allocator@D@2@@std@@@Z
?abs@MatOp@cv@@UEBAXAEBVMatExpr@2@AEAV32@@Z
?abs@cv@@YA?AVMatExpr@1@AEBV21@@Z
?abs@cv@@YA?AVMatExpr@1@AEBVMat@1@@Z
?absdiff16s@hal@cv@@YAXPEBF_K01PEAF1HHPEAX@Z
?absdiff16u@hal@cv@@YAXPEBG_K01PEAG1HHPEAX@Z
?absdiff32f@hal@cv@@YAXPEBM_K01PEAM1HHPEAX@Z
?absdiff32s@hal@cv@@YAXPEBH_K01PEAH1HHPEAX@Z
?absdiff64f@hal@cv@@YAXPEBN_K01PEAN1HHPEAX@Z
?absdiff8s@hal@cv@@YAXPEBC_K01PEAC1HHPEAX@Z
?absdiff8u@hal@cv@@YAXPEBE_K01PEAE1HHPEAX@Z
?absdiff@cv@@YAXAEBV_InputArray@1@0AEBV_OutputArray@1@@Z
?add16s@hal@cv@@YAXPEBF_K01PEAF1HHPEAX@Z
?add16u@hal@cv@@YAXPEBG_K01PEAG1HHPEAX@Z
?add32f@hal@cv@@YAXPEBM_K01PEAM1HHPEAX@Z
?add32s@hal@cv@@YAXPEBH_K01PEAH1HHPEAX@Z
?add64f@hal@cv@@YAXPEBN_K01PEAN1HHPEAX@Z
?add8s@hal@cv@@YAXPEBC_K01PEAC1HHPEAX@Z
?add8u@hal@cv@@YAXPEBE_K01PEAE1HHPEAX@Z
?add@MatOp@cv@@UEBAXAEBVMatExpr@2@0AEAV32@@Z
?add@MatOp@cv@@UEBAXAEBVMatExpr@2@AEBV?$Scalar_@N@2@AEAV32@@Z
?add@cv@@YAXAEBV_InputArray@1@0AEBV_OutputArray@1@0H@Z
?addDataSearchPath@utils@cv@@YAXAEBV?$basic_string@DU?$char_traits@D@std@@V?$allocator@D@2@@std@@@Z
?addDataSearchSubDirectory@utils@cv@@YAXAEBV?$basic_string@DU?$char_traits@D@std@@V?$allocator@D@2@@std@@@Z
?addRNGBias32f@hal@cv@@YAXPEAMPEBMH@Z
?addRNGBias64f@hal@cv@@YAXPEANPEBNH@Z
?addSamplesDataSearchPath@samples@cv@@YAXAEBV?$basic_string@DU?$char_traits@D@std@@V?$allocator@D@2@@std@@@Z
?addSamplesDataSearchSubDirectory@samples@cv@@YAXAEBV?$basic_string@DU?$char_traits@D@std@@V?$allocator@D@2@@std@@@Z
?addWeighted16s@hal@cv@@YAXPEBF_K01PEAF1HHPEAX@Z
?addWeighted16u@hal@cv@@YAXPEBG_K01PEAG1HHPEAX@Z
?addWeighted32f@hal@cv@@YAXPEBM_K01PEAM1HHPEAX@Z
?addWeighted32s@hal@cv@@YAXPEBH_K01PEAH1HHPEAX@Z
?addWeighted64f@hal@cv@@YAXPEBN_K01PEAN1HHPEAX@Z
?addWeighted8s@hal@cv@@YAXPEBC_K01PEAC1HHPEAX@Z
?addWeighted8u@hal@cv@@YAXPEBE_K01PEAE1HHPEAX@Z
?addWeighted@cv@@YAXAEBV_InputArray@1@N0NNAEBV_OutputArray@1@H@Z
?addref@Mat@cv@@QEAAXXZ
?addref@SparseMat@cv@@QEAAXXZ
?addref@UMat@cv@@QEAAXXZ
?addressBits@Device@ocl@cv@@QEBAHXZ
?adjustROI@GpuMat@cuda@cv@@QEAAAEAV123@HHHH@Z
?adjustROI@Mat@cv@@QEAAAEAV12@HHHH@Z
?adjustROI@UMat@cv@@QEAAAEAV12@HHHH@Z
?all@Range@cv@@SA?AV12@XZ
?allocSingletonBuffer@cv@@YAPEAX_K@Z
?allocSingletonNewBuffer@cv@@YAPEAX_K@Z
?and8u@hal@cv@@YAXPEBE_K01PEAE1HHPEAX@Z
?assign@_OutputArray@cv@@QEBAXAEBV?$vector@VMat@cv@@V?$allocator@VMat@cv@@@std@@@std@@@Z
?assign@_OutputArray@cv@@QEBAXAEBV?$vector@VUMat@cv@@V?$allocator@VUMat@cv@@@std@@@std@@@Z
?assign@_OutputArray@cv@@QEBAXAEBVMat@2@@Z
?assign@_OutputArray@cv@@QEBAXAEBVUMat@2@@Z
?assignTo@GpuMat@cuda@cv@@QEBAXAEAV123@H@Z
?assignTo@Mat@cv@@QEBAXAEAV12@H@Z
?assignTo@SparseMat@cv@@QEBAXAEAV12@H@Z
?assignTo@UMat@cv@@QEBAXAEAV12@H@Z
?asyncEngineCount@DeviceInfo@cuda@cv@@QEBAHXZ
?attachContext@ocl@cv@@YAXAEBV?$basic_string@DU?$char_traits@D@std@@V?$allocator@D@2@@std@@PEAX11@Z
?augAssignAdd@MatOp@cv@@UEBAXAEBVMatExpr@2@AEAVMat@2@@Z
?augAssignAnd@MatOp@cv@@UEBAXAEBVMatExpr@2@AEAVMat@2@@Z
?augAssignDivide@MatOp@cv@@UEBAXAEBVMatExpr@2@AEAVMat@2@@Z
?augAssignMultiply@MatOp@cv@@UEBAXAEBVMatExpr@2@AEAVMat@2@@Z
?augAssignOr@MatOp@cv@@UEBAXAEBVMatExpr@2@AEAVMat@2@@Z
?augAssignSubtract@MatOp@cv@@UEBAXAEBVMatExpr@2@AEAVMat@2@@Z
?augAssignXor@MatOp@cv@@UEBAXAEBVMatExpr@2@AEAVMat@2@@Z
?available@Device@ocl@cv@@QEBA_NXZ
?backProject@PCA@cv@@QEBA?AVMat@2@AEBV_InputArray@2@@Z
?backProject@PCA@cv@@QEBAXAEBV_InputArray@2@AEBV_OutputArray@2@@Z
?backSubst@SVD@cv@@QEBAXAEBV_InputArray@2@AEBV_OutputArray@2@@Z
?backSubst@SVD@cv@@SAXAEBV_InputArray@2@000AEBV_OutputArray@2@@Z
?batchDistance@cv@@YAXAEBV_InputArray@1@0AEBV_OutputArray@1@H1HH0H_N@Z
?begin@FileNode@cv@@QEBA?AVFileNodeIterator@2@XZ
?begin@SparseMat@cv@@QEAA?AVSparseMatIterator@2@XZ
?begin@SparseMat@cv@@QEBA?AVSparseMatConstIterator@2@XZ
?bind@Arrays@ogl@cv@@QEBAXXZ
?bind@Buffer@ogl@cv@@QEBAXW4Target@123@@Z
?bind@Texture2D@ogl@cv@@QEBAXXZ
?bitwise_and@cv@@YAXAEBV_InputArray@1@0AEBV_OutputArray@1@0@Z
?bitwise_not@cv@@YAXAEBV_InputArray@1@AEBV_OutputArray@1@0@Z
?bitwise_or@cv@@YAXAEBV_InputArray@1@0AEBV_OutputArray@1@0@Z
?bitwise_xor@cv@@YAXAEBV_InputArray@1@0AEBV_OutputArray@1@0@Z
?borderInterpolate@cv@@YAHHHH@Z
?boundingRect2f@RotatedRect@cv@@QEBA?AV?$Rect_@M@2@XZ
?boundingRect@RotatedRect@cv@@QEBA?AV?$Rect_@H@2@XZ
?bufId@Buffer@ogl@cv@@QEBAIXZ
?buildOptionsAddMatrixDescription@ocl@cv@@YAXAEAV?$basic_string@DU?$char_traits@D@std@@V?$allocator@D@2@@std@@AEBV34@AEBV_InputArray@2@@Z
?builtWith@TargetArchs@cuda@cv@@SA_NW4FeatureSet@23@@Z
?calcCovarMatrix@cv@@YAXAEBV_InputArray@1@AEBV_OutputArray@1@AEBV_InputOutputArray@1@HH@Z
?calcCovarMatrix@cv@@YAXPEBVMat@1@HAEAV21@1HH@Z
?canCreateAlias@Image2D@ocl@cv@@SA_NAEBVUMat@3@@Z
?canMapHostMemory@DeviceInfo@cuda@cv@@QEBA_NXZ
?canonical@fs@utils@cv@@YA?AV?$basic_string@DU?$char_traits@D@std@@V?$allocator@D@2@@std@@AEBV45@@Z
?cartToPolar@cv@@YAXAEBV_InputArray@1@0AEBV_OutputArray@1@1_N@Z
?cbrt@cv@@YA?AUsoftfloat@1@AEBU21@@Z
?channels@Buffer@ogl@cv@@QEBAHXZ
?channels@GpuMat@cuda@cv@@QEBAHXZ
?channels@HostMem@cuda@cv@@QEBAHXZ
?channels@Mat@cv@@QEBAHXZ
?channels@SparseMat@cv@@QEBAHXZ
?channels@UMat@cv@@QEBAHXZ
?channels@_InputArray@cv@@QEBAHH@Z
?check@CommandLineParser@cv@@QEBA_NXZ
?checkHardwareSupport@cv@@YA_NH@Z
?checkOptimalVectorWidth@ocl@cv@@YAHPEBHAEBV_InputArray@2@11111111W4OclVectorStrategy@12@@Z
?checkRange@cv@@YA_NAEBV_InputArray@1@_NPEAV?$Point_@H@1@NN@Z
?checkVector@Mat@cv@@QEBAHHH_N@Z
?checkVector@UMat@cv@@QEBAHHH_N@Z
?check_failed_MatChannels@detail@cv@@YAXHAEBUCheckContext@12@@Z
?check_failed_MatChannels@detail@cv@@YAXHHAEBUCheckContext@12@@Z
?check_failed_MatDepth@detail@cv@@YAXHAEBUCheckContext@12@@Z
?check_failed_MatDepth@detail@cv@@YAXHHAEBUCheckContext@12@@Z
?check_failed_MatType@detail@cv@@YAXHAEBUCheckContext@12@@Z
?check_failed_MatType@detail@cv@@YAXHHAEBUCheckContext@12@@Z
?check_failed_auto@detail@cv@@YAXHAEBUCheckContext@12@@Z
?check_failed_auto@detail@cv@@YAXHHAEBUCheckContext@12@@Z
?check_failed_auto@detail@cv@@YAXMAEBUCheckContext@12@@Z
?check_failed_auto@detail@cv@@YAXMMAEBUCheckContext@12@@Z
?check_failed_auto@detail@cv@@YAXNAEBUCheckContext@12@@Z
?check_failed_auto@detail@cv@@YAXNNAEBUCheckContext@12@@Z
?check_failed_auto@detail@cv@@YAXV?$Size_@H@2@0AEBUCheckContext@12@@Z
?check_failed_auto@detail@cv@@YAXV?$Size_@H@2@AEBUCheckContext@12@@Z
?check_failed_auto@detail@cv@@YAX_K0AEBUCheckContext@12@@Z
?check_failed_auto@detail@cv@@YAX_KAEBUCheckContext@12@@Z
?cleanup@TLSDataContainer@cv@@QEAAXXZ
?clear@Algorithm@cv@@UEAAXXZ
?clear@Hdr@SparseMat@cv@@QEAAXXZ
?clear@SparseMat@cv@@QEAAXXZ
?clear@_OutputArray@cv@@QEBAXXZ
?clearSeq@cv@@YAXPEAUCvSeq@@@Z
?clockRate@DeviceInfo@cuda@cv@@QEBAHXZ
?clone@Buffer@ogl@cv@@QEBA?AV123@W4Target@123@_N@Z
?clone@GpuMat@cuda@cv@@QEBA?AV123@XZ
?clone@HostMem@cuda@cv@@QEBA?AV123@XZ
?clone@Mat@cv@@QEBA?AV12@XZ
?clone@SparseMat@cv@@QEBA?AV12@XZ
?clone@UMat@cv@@QEBA?AV12@XZ
?cmp16s@hal@cv@@YAXPEBF_K01PEAE1HHPEAX@Z
?cmp16u@hal@cv@@YAXPEBG_K01PEAE1HHPEAX@Z
?cmp32f@hal@cv@@YAXPEBM_K01PEAE1HHPEAX@Z
?cmp32s@hal@cv@@YAXPEBH_K01PEAE1HHPEAX@Z
?cmp64f@hal@cv@@YAXPEBN_K01PEAE1HHPEAX@Z
?cmp8s@hal@cv@@YAXPEBC_K01PEAE1HHPEAX@Z
?cmp8u@hal@cv@@YAXPEBE_K01PEAE1HHPEAX@Z
?col@GpuMat@cuda@cv@@QEBA?AV123@H@Z
?col@Mat@cv@@QEBA?AV12@H@Z
?col@MatExpr@cv@@QEBA?AV12@H@Z
?col@UMat@cv@@QEBA?AV12@H@Z
?colRange@GpuMat@cuda@cv@@QEBA?AV123@HH@Z
?colRange@GpuMat@cuda@cv@@QEBA?AV123@VRange@3@@Z
?colRange@Mat@cv@@QEBA?AV12@AEBVRange@2@@Z
?colRange@Mat@cv@@QEBA?AV12@HH@Z
?colRange@UMat@cv@@QEBA?AV12@AEBVRange@2@@Z
?colRange@UMat@cv@@QEBA?AV12@HH@Z
?cols@Buffer@ogl@cv@@QEBAHXZ
?cols@Texture2D@ogl@cv@@QEBAHXZ
?cols@_InputArray@cv@@QEBAHH@Z
?compare@cv@@YAXAEBV_InputArray@1@0AEBV_OutputArray@1@H@Z
?compileWorkGroupSize@Kernel@ocl@cv@@QEBA_NQEA_K@Z
?compilerAvailable@Device@ocl@cv@@QEBA_NXZ
?completeSymm@cv@@YAXAEBV_InputOutputArray@1@_N@Z
?compute@LDA@cv@@QEAAXAEBV_InputArray@2@0@Z
?compute@SVD@cv@@SAXAEBV_InputArray@2@AEBV_OutputArray@2@11H@Z
?compute@SVD@cv@@SAXAEBV_InputArray@2@AEBV_OutputArray@2@H@Z
?computeMode@DeviceInfo@cuda@cv@@QEBA?AW4ComputeMode@123@XZ
?concurrentKernels@DeviceInfo@cuda@cv@@QEBA_NXZ
?convert@KeyPoint@cv@@SAXAEBV?$vector@V?$Point_@M@cv@@V?$allocator@V?$Point_@M@cv@@@std@@@std@@AEAV?$vector@VKeyPoint@cv@@V?$allocator@VKeyPoint@cv@@@std@@@4@MMHH@Z
?convert@KeyPoint@cv@@SAXAEBV?$vector@VKeyPoint@cv@@V?$allocator@VKeyPoint@cv@@@std@@@std@@AEAV?$vector@V?$Point_@M@cv@@V?$allocator@V?$Point_@M@cv@@@std@@@4@AEBV?$vector@HV?$allocator@H@std@@@4@@Z
?convertFp16@cv@@YAXAEBV_InputArray@1@AEBV_OutputArray@1@@Z
?convertFromBuffer@ocl@cv@@YAXPEAX_KHHHAEAVUMat@2@@Z
?convertFromD3D10Texture2D@directx@cv@@YAXPEAUID3D10Texture2D@@AEBV_OutputArray@2@@Z
?convertFromD3D11Texture2D@directx@cv@@YAXPEAUID3D11Texture2D@@AEBV_OutputArray@2@@Z
?convertFromDirect3DSurface9@directx@cv@@YAXPEAUIDirect3DSurface9@@AEBV_OutputArray@2@PEAX@Z
?convertFromGLTexture2D@ogl@cv@@YAXAEBVTexture2D@12@AEBV_OutputArray@2@@Z
?convertFromImage@ocl@cv@@YAXPEAXAEAVUMat@2@@Z
?convertFromVASurface@va_intel@cv@@YAXPEAXIV?$Size_@H@2@AEBV_OutputArray@2@@Z
?convertScaleAbs@cv@@YAXAEBV_InputArray@1@AEBV_OutputArray@1@NN@Z
?convertTo@GpuMat@cuda@cv@@QEBAXAEBV_OutputArray@3@H@Z
?convertTo@GpuMat@cuda@cv@@QEBAXAEBV_OutputArray@3@HAEAVStream@23@@Z
?convertTo@GpuMat@cuda@cv@@QEBAXAEBV_OutputArray@3@HNAEAVStream@23@@Z
?convertTo@GpuMat@cuda@cv@@QEBAXAEBV_OutputArray@3@HNN@Z
?convertTo@GpuMat@cuda@cv@@QEBAXAEBV_OutputArray@3@HNNAEAVStream@23@@Z
?convertTo@Mat@cv@@QEBAXAEBV_OutputArray@2@HNN@Z
?convertTo@SparseMat@cv@@QEBAXAEAV12@HN@Z
?convertTo@SparseMat@cv@@QEBAXAEAVMat@2@HNN@Z
?convertTo@UMat@cv@@QEBAXAEBV_OutputArray@2@HNN@Z
?convertToD3D10Texture2D@directx@cv@@YAXAEBV_InputArray@2@PEAUID3D10Texture2D@@@Z
?convertToD3D11Texture2D@directx@cv@@YAXAEBV_InputArray@2@PEAUID3D11Texture2D@@@Z
?convertToDirect3DSurface9@directx@cv@@YAXAEBV_InputArray@2@PEAUIDirect3DSurface9@@PEAX@Z
?convertToGLTexture2D@ogl@cv@@YAXAEBV_InputArray@2@AEAVTexture2D@12@@Z
?convertToVASurface@va_intel@cv@@YAXPEAXAEBV_InputArray@2@IV?$Size_@H@2@@Z
?convertTypeStr@ocl@cv@@YAPEBDHHHPEAD@Z
?copy@MatAllocator@cv@@UEBAXPEAUUMatData@2@0HQEB_K1111_N@Z
?copyFrom@Buffer@ogl@cv@@QEAAXAEBV_InputArray@3@AEAVStream@cuda@3@W4Target@123@_N@Z
?copyFrom@Buffer@ogl@cv@@QEAAXAEBV_InputArray@3@W4Target@123@_N@Z
?copyFrom@Texture2D@ogl@cv@@QEAAXAEBV_InputArray@3@_N@Z
?copyMakeBorder@cv@@YAXAEBV_InputArray@1@AEBV_OutputArray@1@HHHHHAEBV?$Scalar_@N@1@@Z
?copyOnMap@UMatData@cv@@QEBA_NXZ
?copySize@Mat@cv@@QEAAXAEBV12@@Z
?copySize@UMat@cv@@QEAAXAEBV12@@Z
?copyTo@Buffer@ogl@cv@@QEBAXAEBV_OutputArray@3@@Z
?copyTo@Buffer@ogl@cv@@QEBAXAEBV_OutputArray@3@AEAVStream@cuda@3@@Z
?copyTo@GpuMat@cuda@cv@@QEBAXAEBV_OutputArray@3@@Z
?copyTo@GpuMat@cuda@cv@@QEBAXAEBV_OutputArray@3@AEAVStream@23@@Z
?copyTo@GpuMat@cuda@cv@@QEBAXAEBV_OutputArray@3@AEBV_InputArray@3@@Z
?copyTo@GpuMat@cuda@cv@@QEBAXAEBV_OutputArray@3@AEBV_InputArray@3@AEAVStream@23@@Z
?copyTo@Mat@cv@@QEBAXAEBV_OutputArray@2@@Z
?copyTo@Mat@cv@@QEBAXAEBV_OutputArray@2@AEBV_InputArray@2@@Z
?copyTo@SparseMat@cv@@QEBAXAEAV12@@Z
?copyTo@SparseMat@cv@@QEBAXAEAVMat@2@@Z
?copyTo@Texture2D@ogl@cv@@QEBAXAEBV_OutputArray@3@H_N@Z
?copyTo@UMat@cv@@QEBAXAEBV_OutputArray@2@@Z
?copyTo@UMat@cv@@QEBAXAEBV_OutputArray@2@AEBV_InputArray@2@@Z
?copyTo@_InputArray@cv@@QEBAXAEBV_OutputArray@2@@Z
?copyTo@_InputArray@cv@@QEBAXAEBV_OutputArray@2@AEBV12@@Z
?copyTo@cv@@YAXAEBV_InputArray@1@AEBV_OutputArray@1@0@Z
?copyToSparseMat@CvSparseMat@@QEBAXAEAVSparseMat@cv@@@Z
?cos@cv@@YA?AUsoftdouble@1@AEBU21@@Z
?countNonZero@cv@@YAHAEBV_InputArray@1@@Z
?create@Buffer@ogl@cv@@QEAAXHHHW4Target@123@_N@Z
?create@Buffer@ogl@cv@@QEAAXV?$Size_@H@3@HW4Target@123@_N@Z
?create@ConjGradSolver@cv@@SA?AU?$Ptr@VConjGradSolver@cv@@@2@AEBU?$Ptr@VFunction@MinProblemSolver@cv@@@2@VTermCriteria@2@@Z
?create@Context@ocl@cv@@QEAA_NH@Z
?create@Context@ocl@cv@@QEAA_NXZ
?create@DCT2D@hal@cv@@SA?AU?$Ptr@UDCT2D@hal@cv@@@3@HHHH@Z
?create@DFT1D@hal@cv@@SA?AU?$Ptr@UDFT1D@hal@cv@@@3@HHHHPEA_N@Z
?create@DFT2D@hal@cv@@SA?AU?$Ptr@UDFT2D@hal@cv@@@3@HHHHHHH@Z
?create@DownhillSolver@cv@@SA?AU?$Ptr@VDownhillSolver@cv@@@2@AEBU?$Ptr@VFunction@MinProblemSolver@cv@@@2@AEBV_InputArray@2@VTermCriteria@2@@Z
?create@GpuMat@cuda@cv@@QEAAXHHH@Z
?create@GpuMat@cuda@cv@@QEAAXV?$Size_@H@3@H@Z
?create@HostMem@cuda@cv@@QEAAXHHH@Z
?create@HostMem@cuda@cv@@QEAAXV?$Size_@H@3@H@Z
?create@Kernel@ocl@cv@@QEAA_NPEBDAEBVProgram@23@@Z
?create@Kernel@ocl@cv@@QEAA_NPEBDAEBVProgramSource@23@AEBV?$basic_string@DU?$char_traits@D@std@@V?$allocator@D@2@@std@@PEAV56@@Z
?create@Mat@cv@@QEAAXAEBV?$vector@HV?$allocator@H@std@@@std@@H@Z
?create@Mat@cv@@QEAAXHHH@Z
?create@Mat@cv@@QEAAXHPEBHH@Z
?create@Mat@cv@@QEAAXV?$Size_@H@2@H@Z
?create@Program@ocl@cv@@QEAA_NAEBVProgramSource@23@AEBV?$basic_string@DU?$char_traits@D@std@@V?$allocator@D@2@@std@@AEAV56@@Z
?create@Queue@ocl@cv@@QEAA_NAEBVContext@23@AEBVDevice@23@@Z
?create@SparseMat@cv@@QEAAXHPEBHH@Z
?create@Texture2D@ogl@cv@@QEAAXHHW4Format@123@_N@Z
?create@Texture2D@ogl@cv@@QEAAXV?$Size_@H@3@W4Format@123@_N@Z
?create@UMat@cv@@QEAAXAEBV?$vector@HV?$allocator@H@std@@@std@@HW4UMatUsageFlags@2@@Z
?create@UMat@cv@@QEAAXHHHW4UMatUsageFlags@2@@Z
?create@UMat@cv@@QEAAXHPEBHHW4UMatUsageFlags@2@@Z
?create@UMat@cv@@QEAAXV?$Size_@H@2@HW4UMatUsageFlags@2@@Z
?create@_OutputArray@cv@@QEBAXHHHH_NW4DepthMask@12@@Z
?create@_OutputArray@cv@@QEBAXHPEBHHH_NW4DepthMask@12@@Z
?create@_OutputArray@cv@@QEBAXV?$Size_@H@2@HH_NW4DepthMask@12@@Z
?createContinuous@cuda@cv@@YAXHHHAEBV_OutputArray@2@@Z
?createDirectories@fs@utils@cv@@YA_NAEBV?$basic_string@DU?$char_traits@D@std@@V?$allocator@D@2@@std@@@Z
?createDirectory@fs@utils@cv@@YA_NAEBV?$basic_string@DU?$char_traits@D@std@@V?$allocator@D@2@@std@@@Z
?createGpuMatHeader@HostMem@cuda@cv@@QEBA?AVGpuMat@23@XZ
?createMatHeader@HostMem@cuda@cv@@QEBA?AVMat@3@XZ
?createSameSize@_OutputArray@cv@@QEBAXAEBV_InputArray@2@H@Z
?cross@Mat@cv@@QEBA?AV12@AEBV_InputArray@2@@Z
?cross@MatExpr@cv@@QEBA?AVMat@2@AEBV32@@Z
?cubeRoot@cv@@YAMM@Z
?currentParallelFramework@cv@@YAPEBDXZ
?cvCeil@@YAHAEBUsoftdouble@cv@@@Z
?cvCeil@@YAHAEBUsoftfloat@cv@@@Z
?cvCreateSparseMat@@YAPEAUCvSparseMat@@AEBVSparseMat@cv@@@Z
?cvFloor@@YAHAEBUsoftdouble@cv@@@Z
?cvFloor@@YAHAEBUsoftfloat@cv@@@Z
?cvIplImage@@YA?AU_IplImage@@AEBVMat@cv@@@Z
?cvMatND@@YA?AUCvMatND@@AEBVMat@cv@@@Z
?cvRound64@@YA_JAEBUsoftdouble@cv@@@Z
?cvRound@@YAHAEBUsoftdouble@cv@@@Z
?cvRound@@YAHAEBUsoftfloat@cv@@@Z
?cvTrunc@@YAHAEBUsoftdouble@cv@@@Z
?cvTrunc@@YAHAEBUsoftfloat@cv@@@Z
?cvarrToMat@cv@@YA?AVMat@1@PEBX_N1HPEAV?$AutoBuffer@N$0II@@1@@Z
?cvt16f32f@hal@cv@@YAXPEBVfloat16_t@2@PEAMH@Z
?cvt32f16f@hal@cv@@YAXPEBMPEAVfloat16_t@2@H@Z
?dct@cv@@YAXAEBV_InputArray@1@AEBV_OutputArray@1@H@Z
?deallocate@Mat@cv@@QEAAXXZ
?deallocate@UMat@cv@@QEAAXXZ
?defaultAllocator@GpuMat@cuda@cv@@SAPEAVAllocator@123@XZ
?depth@Buffer@ogl@cv@@QEBAHXZ
?depth@GpuMat@cuda@cv@@QEBAHXZ
?depth@HostMem@cuda@cv@@QEBAHXZ
?depth@Mat@cv@@QEBAHXZ
?depth@SparseMat@cv@@QEBAHXZ
?depth@UMat@cv@@QEBAHXZ
?depth@_InputArray@cv@@QEBAHH@Z
?depthToString@cv@@YAPEBDH@Z
?depthToString_@detail@cv@@YAPEBDH@Z
?destroy@Region@details@trace@utils@cv@@QEAAXXZ
?determinant@cv@@YANAEBV_InputArray@1@@Z
?device@Context@ocl@cv@@QEBAAEBVDevice@23@_K@Z
?deviceCopyObsolete@UMatData@cv@@QEBA_NXZ
?deviceID@DeviceInfo@cuda@cv@@QEBAHXZ
?deviceMemMapped@UMatData@cv@@QEBA_NXZ
?deviceNumber@PlatformInfo@ocl@cv@@QEBAHXZ
?deviceSupports@cuda@cv@@YA_NW4FeatureSet@12@@Z
?deviceVersionMajor@Device@ocl@cv@@QEBAHXZ
?deviceVersionMinor@Device@ocl@cv@@QEBAHXZ
?dft@cv@@YAXAEBV_InputArray@1@AEBV_OutputArray@1@HH@Z
?diag@Mat@cv@@QEBA?AV12@H@Z
?diag@Mat@cv@@SA?AV12@AEBV12@@Z
?diag@MatExpr@cv@@QEBA?AV12@H@Z
?diag@MatOp@cv@@UEBAXAEBVMatExpr@2@HAEAV32@@Z
?diag@UMat@cv@@QEBA?AV12@H@Z
?diag@UMat@cv@@SA?AV12@AEBV12@@Z
?dims@MatSize@cv@@QEBAHXZ
?dims@SparseMat@cv@@QEBAHXZ
?dims@_InputArray@cv@@QEBAHH@Z
?div16s@hal@cv@@YAXPEBF_K01PEAF1HHPEAX@Z
?div16u@hal@cv@@YAXPEBG_K01PEAG1HHPEAX@Z
?div32f@hal@cv@@YAXPEBM_K01PEAM1HHPEAX@Z
?div32s@hal@cv@@YAXPEBH_K01PEAH1HHPEAX@Z
?div64f@hal@cv@@YAXPEBN_K01PEAN1HHPEAX@Z
?div8s@hal@cv@@YAXPEBC_K01PEAC1HHPEAX@Z
?div8u@hal@cv@@YAXPEBE_K01PEAE1HHPEAX@Z
?divide@MatOp@cv@@UEBAXAEBVMatExpr@2@0AEAV32@N@Z
?divide@MatOp@cv@@UEBAXNAEBVMatExpr@2@AEAV32@@Z
?divide@cv@@YAXAEBV_InputArray@1@0AEBV_OutputArray@1@NH@Z
?divide@cv@@YAXNAEBV_InputArray@1@AEBV_OutputArray@1@H@Z
?dot@Mat@cv@@QEBANAEBV_InputArray@2@@Z
?dot@MatExpr@cv@@QEBANAEBVMat@2@@Z
?dot@UMat@cv@@QEBANAEBV_InputArray@2@@Z
?doubleFPConfig@Device@ocl@cv@@QEBAHXZ
?download@GpuMat@cuda@cv@@QEBAXAEBV_OutputArray@3@@Z
?download@GpuMat@cuda@cv@@QEBAXAEBV_OutputArray@3@AEAVStream@23@@Z
?download@MatAllocator@cv@@UEBAXPEAUUMatData@2@PEAXHQEB_K222@Z
?driverVersion@Device@ocl@cv@@QEBA?AV?$basic_string@DU?$char_traits@D@std@@V?$allocator@D@2@@std@@XZ
?dumpInputArray@utils@cv@@YA?AV?$basic_string@DU?$char_traits@D@std@@V?$allocator@D@2@@std@@AEBV_InputArray@2@@Z
?dumpInputArrayOfArrays@utils@cv@@YA?AV?$basic_string@DU?$char_traits@D@std@@V?$allocator@D@2@@std@@AEBV_InputArray@2@@Z
?dumpInputOutputArray@utils@cv@@YA?AV?$basic_string@DU?$char_traits@D@std@@V?$allocator@D@2@@std@@AEBV_InputOutputArray@2@@Z
?dumpInputOutputArrayOfArrays@utils@cv@@YA?AV?$basic_string@DU?$char_traits@D@std@@V?$allocator@D@2@@std@@AEBV_InputOutputArray@2@@Z
?durationNS@Timer@ocl@cv@@QEBA_KXZ
?eigen@cv@@YA_NAEBV_InputArray@1@AEBV_OutputArray@1@1@Z
?eigenNonSymmetric@cv@@YAXAEBV_InputArray@1@AEBV_OutputArray@1@1@Z
?eigenvalues@LDA@cv@@QEBA?AVMat@2@XZ
?eigenvectors@LDA@cv@@QEBA?AVMat@2@XZ
?elapsedTime@Event@cuda@cv@@SAMAEBV123@0@Z
?elemSize1@Buffer@ogl@cv@@QEBAHXZ
?elemSize1@GpuMat@cuda@cv@@QEBA_KXZ
?elemSize1@HostMem@cuda@cv@@QEBA_KXZ
?elemSize1@Mat@cv@@QEBA_KXZ
?elemSize1@SparseMat@cv@@QEBA_KXZ
?elemSize1@UMat@cv@@QEBA_KXZ
?elemSize@Buffer@ogl@cv@@QEBAHXZ
?elemSize@GpuMat@cuda@cv@@QEBA_KXZ
?elemSize@HostMem@cuda@cv@@QEBA_KXZ
?elemSize@Mat@cv@@QEBA_KXZ
?elemSize@SparseMat@cv@@QEBA_KXZ
?elemSize@UMat@cv@@QEBA_KXZ
?elementWise@MatOp@cv@@UEBA_NAEBVMatExpr@2@@Z
?empty@Algorithm@cv@@UEBA_NXZ
?empty@Arrays@ogl@cv@@QEBA_NXZ
?empty@Buffer@ogl@cv@@QEBA_NXZ
?empty@FileNode@cv@@QEBA_NXZ
?empty@GpuMat@cuda@cv@@QEBA_NXZ
?empty@HostMem@cuda@cv@@QEBA_NXZ
?empty@Kernel@ocl@cv@@QEBA_NXZ
?empty@Mat@cv@@QEBA_NXZ
?empty@Range@cv@@QEBA_NXZ
?empty@Texture2D@ogl@cv@@QEBA_NXZ
?empty@UMat@cv@@QEBA_NXZ
?empty@_InputArray@cv@@QEBA_NXZ
?end@FileNode@cv@@QEBA?AVFileNodeIterator@2@XZ
?end@SparseMat@cv@@QEAA?AVSparseMatIterator@2@XZ
?end@SparseMat@cv@@QEBA?AVSparseMatConstIterator@2@XZ
?endWriteStruct@FileStorage@cv@@QEAAXXZ
?endianLittle@Device@ocl@cv@@QEBA_NXZ
?enqueueHostCallback@Stream@cuda@cv@@QEAAXP6AXHPEAX@Z0@Z
?ensureSizeIsEnough@cuda@cv@@YAXHHHAEBV_OutputArray@2@@Z
?eps@softdouble@cv@@SA?AU12@XZ
?eps@softfloat@cv@@SA?AU12@XZ
?equalTo@FileNodeIterator@cv@@QEBA_NAEBV12@@Z
?erase@SparseMat@cv@@QEAAXHHHPEA_K@Z
?erase@SparseMat@cv@@QEAAXHHPEA_K@Z
?erase@SparseMat@cv@@QEAAXPEBHPEA_K@Z
?error@cv@@YAXAEBVException@1@@Z
?error@cv@@YAXHAEBV?$basic_string@DU?$char_traits@D@std@@V?$allocator@D@2@@std@@PEBD1H@Z
?errorCorrectionSupport@Device@ocl@cv@@QEBA_NXZ
?executionCapabilities@Device@ocl@cv@@QEBAHXZ
?exists@fs@utils@cv@@YA_NAEBV?$basic_string@DU?$char_traits@D@std@@V?$allocator@D@2@@std@@@Z
?exp32f@hal@cv@@YAXPEBMPEAMH@Z
?exp64f@hal@cv@@YAXPEBNPEANH@Z
?exp@cv@@YA?AUsoftdouble@1@AEBU21@@Z
?exp@cv@@YA?AUsoftfloat@1@AEBU21@@Z
?exp@cv@@YAXAEBV_InputArray@1@AEBV_OutputArray@1@@Z
?exp@hal@cv@@YAXPEBMPEAMH@Z
?exp@hal@cv@@YAXPEBNPEANH@Z
?extensions@Device@ocl@cv@@QEBA?AV?$basic_string@DU?$char_traits@D@std@@V?$allocator@D@2@@std@@XZ
?extractChannel@cv@@YAXAEBV_InputArray@1@AEBV_OutputArray@1@H@Z
?extractImageCOI@cv@@YAXPEBXAEBV_OutputArray@1@H@Z
?eye@Mat@cv@@SA?AVMatExpr@2@HHH@Z
?eye@Mat@cv@@SA?AVMatExpr@2@V?$Size_@H@2@H@Z
?eye@UMat@cv@@SA?AV12@HHH@Z
?eye@UMat@cv@@SA?AV12@V?$Size_@H@2@H@Z
?fastAtan2@cv@@YAMMM@Z
?fastAtan2@hal@cv@@YAXPEBM0PEAMH_N@Z
?fastAtan32f@hal@cv@@YAXPEBM0PEAMH_N@Z
?fastAtan64f@hal@cv@@YAXPEBN0PEANH_N@Z
?fastFree@cv@@YAXPEAX@Z
?fastMalloc@cv@@YAPEAX_K@Z
?fill@RNG@cv@@QEAAXAEBV_InputOutputArray@2@HAEBV_InputArray@2@1_N@Z
?findDataFile@utils@cv@@YA?AV?$basic_string@DU?$char_traits@D@std@@V?$allocator@D@2@@std@@AEBV34@PEBDPEBV?$vector@V?$basic_string@DU?$char_traits@D@std@@V?$allocator@D@2@@std@@V?$allocator@V?$basic_string@DU?$char_traits@D@std@@V?$allocator@D@2@@std@@@2@@4@2@Z
?findDataFile@utils@cv@@YA?AV?$basic_string@DU?$char_traits@D@std@@V?$allocator@D@2@@std@@AEBV34@_NPEBD@Z
?findFile@samples@cv@@YA?AV?$basic_string@DU?$char_traits@D@std@@V?$allocator@D@2@@std@@AEBV34@_N1@Z
?findFileOrKeep@samples@cv@@YA?AV?$basic_string@DU?$char_traits@D@std@@V?$allocator@D@2@@std@@AEBV34@_N@Z
?findNonZero@cv@@YAXAEBV_InputArray@1@AEBV_OutputArray@1@@Z
?finish@Queue@ocl@cv@@QEAAXXZ
?finish@ocl@cv@@YAXXZ
?fixedSize@_OutputArray@cv@@QEBA_NXZ
?fixedType@_OutputArray@cv@@QEBA_NXZ
?flip@cv@@YAXAEBV_InputArray@1@AEBV_OutputArray@1@H@Z
?format@Texture2D@ogl@cv@@QEBA?AW4Format@123@XZ
?format@cv@@YA?AV?$basic_string@DU?$char_traits@D@std@@V?$allocator@D@2@@std@@PEBDZZ
?formatMessage@Exception@cv@@QEAAXXZ
?freeMemory@DeviceInfo@cuda@cv@@QEBA_KXZ
?fromBinary@ProgramSource@ocl@cv@@SA?AV123@AEBV?$basic_string@DU?$char_traits@D@std@@V?$allocator@D@2@@std@@0PEBE_K0@Z
?fromRaw@softdouble@cv@@SA?AU12@_K@Z
?fromRaw@softfloat@cv@@SA?BU12@I@Z
?fromSPIR@ProgramSource@ocl@cv@@SA?AV123@AEBV?$basic_string@DU?$char_traits@D@std@@V?$allocator@D@2@@std@@0PEBE_K0@Z
?gatherData@TLSDataContainer@cv@@IEBAXAEAV?$vector@PEAXV?$allocator@PEAX@std@@@std@@@Z
?gaussian@RNG@cv@@QEAANN@Z
?gemm32f@hal@cv@@YAXPEBM_K01M01MPEAM1HHHH@Z
?gemm32fc@hal@cv@@YAXPEBM_K01M01MPEAM1HHHH@Z
?gemm64f@hal@cv@@YAXPEBN_K01N01NPEAN1HHHH@Z
?gemm64fc@hal@cv@@YAXPEBN_K01N01NPEAN1HHHH@Z
?gemm@cv@@YAXAEBV_InputArray@1@0N0NAEBV_OutputArray@1@H@Z
?get@AsyncArray@cv@@QEBAXAEBV_OutputArray@2@@Z
?get@AsyncArray@cv@@QEBA_NAEBV_OutputArray@2@N@Z
?get@AsyncArray@cv@@QEBA_NAEBV_OutputArray@2@_J@Z
?get@Formatter@cv@@SA?AU?$Ptr@VFormatter@cv@@@2@W4FormatType@12@@Z
?getAllocator@BufferPool@cuda@cv@@QEBA?AU?$Ptr@VAllocator@GpuMat@cuda@cv@@@3@XZ
?getAllocator@HostMem@cuda@cv@@SAPEAVMatAllocator@3@W4AllocType@123@@Z
?getAllocatorStatistics@cv@@YAAEAVAllocatorStatisticsInterface@utils@1@XZ
?getArrayResult@AsyncPromise@cv@@QEAA?AVAsyncArray@2@XZ
?getBinLocation@utils@cv@@YA_NAEAV?$basic_string@DU?$char_traits@D@std@@V?$allocator@D@2@@std@@@Z
?getBinLocation@utils@cv@@YA_NAEAV?$basic_string@_WU?$char_traits@_W@std@@V?$allocator@_W@2@@std@@@Z
?getBinary@Program@ocl@cv@@QEBAXAEAV?$vector@DV?$allocator@D@std@@@std@@@Z
?getBuffer@BufferPool@cuda@cv@@QEAA?AVGpuMat@23@HHH@Z
?getBuffer@BufferPool@cuda@cv@@QEAA?AVGpuMat@23@V?$Size_@H@3@H@Z
?getBufferPoolController@MatAllocator@cv@@UEBAPEAVBufferPoolController@2@PEBD@Z
?getBuildInformation@cv@@YAAEBV?$basic_string@DU?$char_traits@D@std@@V?$allocator@D@2@@std@@XZ
?getByIndex@CommandLineParser@cv@@IEBAXH_NW4Param@2@PEAX@Z
?getByName@CommandLineParser@cv@@IEBAXAEBV?$basic_string@DU?$char_traits@D@std@@V?$allocator@D@2@@std@@_NW4Param@2@PEAX@Z
?getCPUFeaturesLine@cv@@YA?AV?$basic_string@DU?$char_traits@D@std@@V?$allocator@D@2@@std@@XZ
?getCPUTickCount@cv@@YA_JXZ
?getCacheDirectory@fs@utils@cv@@YA?AV?$basic_string@DU?$char_traits@D@std@@V?$allocator@D@2@@std@@PEBD0@Z
?getConfigurationParameterBool@utils@cv@@YA_NPEBD_N@Z
?getConfigurationParameterPaths@utils@cv@@YA?AV?$vector@V?$basic_string@DU?$char_traits@D@std@@V?$allocator@D@2@@std@@V?$allocator@V?$basic_string@DU?$char_traits@D@std@@V?$allocator@D@2@@std@@@2@@std@@PEBDAEBV34@@Z
?getConfigurationParameterSizeT@utils@cv@@YA_KPEBD_K@Z
?getConfigurationParameterString@utils@cv@@YA?AV?$basic_string@DU?$char_traits@D@std@@V?$allocator@D@2@@std@@PEBD0@Z
?getCounter@TickMeter@cv@@QEBA_JXZ
?getCudaDriverApiErrorMessage@cuda@cv@@YA?AV?$basic_string@DU?$char_traits@D@std@@V?$allocator@D@2@@std@@H@Z
?getCudaEnabledDeviceCount@cuda@cv@@YAHXZ
?getData@TLSDataContainer@cv@@IEBAPEAXXZ
?getDefault@Context@ocl@cv@@SAAEAV123@_N@Z
?getDefault@Device@ocl@cv@@SAAEBV123@XZ
?getDefault@Platform@ocl@cv@@SAAEAV123@XZ
?getDefault@Queue@ocl@cv@@SAAEAV123@XZ
?getDefaultAllocator@Mat@cv@@SAPEAVMatAllocator@2@XZ
?getDefaultName@Algorithm@cv@@UEBA?AV?$basic_string@DU?$char_traits@D@std@@V?$allocator@D@2@@std@@XZ
?getDefaultObjectName@FileStorage@cv@@SA?AV?$basic_string@DU?$char_traits@D@std@@V?$allocator@D@2@@std@@AEBV34@@Z
?getDevice@PlatformInfo@ocl@cv@@QEBAXAEAVDevice@23@H@Z
?getDevice@cuda@cv@@YAHXZ
?getExp@softdouble@cv@@QEBAHXZ
?getExp@softfloat@cv@@QEBAHXZ
?getFirstTopLevelNode@FileStorage@cv@@QEBA?AVFileNode@2@XZ
?getFlags@_InputArray@cv@@QEBAHXZ
?getFlags@instr@cv@@YA?AW4FLAGS@12@XZ
?getFormat@FileStorage@cv@@QEBAHXZ
?getFrac@softdouble@cv@@QEBA?AU12@XZ
?getFrac@softfloat@cv@@QEBA?AU12@XZ
?getGlobalLogTag@internal@logging@utils@cv@@YAPEAULogTag@234@XZ
?getGpuMat@_InputArray@cv@@QEBA?AVGpuMat@cuda@2@XZ
?getGpuMatRef@_OutputArray@cv@@QEBAAEAVGpuMat@cuda@2@XZ
?getGpuMatVecRef@_OutputArray@cv@@QEBAAEAV?$vector@VGpuMat@cuda@cv@@V?$allocator@VGpuMat@cuda@cv@@@std@@@std@@XZ
?getGpuMatVector@_InputArray@cv@@QEBAXAEAV?$vector@VGpuMat@cuda@cv@@V?$allocator@VGpuMat@cuda@cv@@@std@@@std@@@Z
?getGradient@Function@MinProblemSolver@cv@@UEAAXPEBNPEAN@Z
?getGradientEps@Function@MinProblemSolver@cv@@UEBANXZ
?getHardwareFeatureName@cv@@YA?AV?$basic_string@DU?$char_traits@D@std@@V?$allocator@D@2@@std@@H@Z
?getHostMemRef@_OutputArray@cv@@QEBAAEAVHostMem@cuda@2@XZ
?getImpl@Context@ocl@cv@@QEBAPEAUImpl@123@XZ
?getImpl@Program@ocl@cv@@QEBAPEAUImpl@123@XZ
?getImpl@ProgramSource@ocl@cv@@QEBAPEAUImpl@123@XZ
?getImpl@Queue@ocl@cv@@QEBAPEAUImpl@123@XZ
?getInputMat@cuda@cv@@YA?AVGpuMat@12@AEBV_InputArray@2@AEAVStream@12@@Z
?getIppErrorLocation@ipp@cv@@YA?AV?$basic_string@DU?$char_traits@D@std@@V?$allocator@D@2@@std@@XZ
?getIppFeatures@ipp@cv@@YA_KXZ
?getIppStatus@ipp@cv@@YAHXZ
?getIppTopFeatures@ipp@cv@@YA_KXZ
?getIppVersion@ipp@cv@@YA?AV?$basic_string@DU?$char_traits@D@std@@V?$allocator@D@2@@std@@XZ
?getLogLevel@logging@utils@cv@@YA?AW4LogLevel@123@XZ
?getLogTagLevel@logging@utils@cv@@YA?AW4LogLevel@123@PEBD@Z
?getMat@UMat@cv@@QEBA?AVMat@2@W4AccessFlag@2@@Z
?getMat@_InputArray@cv@@QEBA?AVMat@2@H@Z
?getMatRef@_OutputArray@cv@@QEBAAEAVMat@2@H@Z
?getMatVector@_InputArray@cv@@QEBAXAEAV?$vector@VMat@cv@@V?$allocator@VMat@cv@@@std@@@std@@@Z
?getMat_@_InputArray@cv@@QEBA?AVMat@2@H@Z
?getMeanMs@NodeData@instr@cv@@QEBANXZ
?getNppErrorMessage@cuda@cv@@YA?AV?$basic_string@DU?$char_traits@D@std@@V?$allocator@D@2@@std@@H@Z
?getNumThreads@cv@@YAHXZ
?getNumberOfCPUs@cv@@YAHXZ
?getOGlBuffer@_InputArray@cv@@QEBA?AVBuffer@ogl@2@XZ
?getOGlBufferRef@_OutputArray@cv@@QEBAAEAVBuffer@ogl@2@XZ
?getObj@_InputArray@cv@@QEBAPEAXXZ
?getOpenCLAllocator@ocl@cv@@YAPEAVMatAllocator@2@XZ
?getOpenCLAllocatorStatistics@ocl@cv@@YAAEAVAllocatorStatisticsInterface@utils@2@XZ
?getOpenCLErrorString@ocl@cv@@YAPEBDH@Z
?getOptimalDFTSize@cv@@YAHH@Z
?getOutputMat@cuda@cv@@YA?AVGpuMat@12@AEBV_OutputArray@2@HHHAEAVStream@12@@Z
?getParent@fs@utils@cv@@YA?AV?$basic_string@DU?$char_traits@D@std@@V?$allocator@D@2@@std@@AEBV45@@Z
?getParent@fs@utils@cv@@YA?AV?$basic_string@_WU?$char_traits@_W@std@@V?$allocator@_W@2@@std@@AEBV45@@Z
?getPathToApplication@CommandLineParser@cv@@QEBA?AV?$basic_string@DU?$char_traits@D@std@@V?$allocator@D@2@@std@@XZ
?getPlatfomsInfo@ocl@cv@@YAXAEAV?$vector@VPlatformInfo@ocl@cv@@V?$allocator@VPlatformInfo@ocl@cv@@@std@@@std@@@Z
?getPrefix@Program@ocl@cv@@QEBA?AV?$basic_string@DU?$char_traits@D@std@@V?$allocator@D@2@@std@@XZ
?getPrefix@Program@ocl@cv@@SA?AV?$basic_string@DU?$char_traits@D@std@@V?$allocator@D@2@@std@@AEBV45@@Z
?getProfilingQueue@Queue@ocl@cv@@QEBAAEBV123@XZ
?getProg@Context@ocl@cv@@QEAA?AVProgram@23@AEBVProgramSource@23@AEBV?$basic_string@DU?$char_traits@D@std@@V?$allocator@D@2@@std@@AEAV67@@Z
?getSeqElem@cv@@YAPEACPEBUCvSeq@@H@Z
?getSign@softdouble@cv@@QEBA_NXZ
?getSign@softfloat@cv@@QEBA_NXZ
?getStdAllocator@Mat@cv@@SAPEAVMatAllocator@2@XZ
?getStdAllocator@UMat@cv@@SAPEAVMatAllocator@2@XZ
?getSz@_InputArray@cv@@QEBA?AV?$Size_@H@2@XZ
?getThreadID@utils@cv@@YAHXZ
?getThreadNum@cv@@YAHXZ
?getTickCount@cv@@YA_JXZ
?getTickFrequency@cv@@YANXZ
?getTimeMicro@TickMeter@cv@@QEBANXZ
?getTimeMilli@TickMeter@cv@@QEBANXZ
?getTimeSec@TickMeter@cv@@QEBANXZ
?getTimeTicks@TickMeter@cv@@QEBA_JXZ
?getTotalMs@NodeData@instr@cv@@QEBANXZ
?getTrace@instr@cv@@YAPEAV?$Node@VNodeData@instr@cv@@@2@XZ
?getTraceManager@details@trace@utils@cv@@YAAEAVTraceManager@1234@XZ
?getTypeFromD3DFORMAT@directx@cv@@YAHH@Z
?getTypeFromDXGI_FORMAT@directx@cv@@YAHH@Z
?getUMat@Mat@cv@@QEBA?AVUMat@2@W4AccessFlag@2@W4UMatUsageFlags@2@@Z
?getUMat@_InputArray@cv@@QEBA?AVUMat@2@H@Z
?getUMatRef@_OutputArray@cv@@QEBAAEAVUMat@2@H@Z
?getUMatVector@_InputArray@cv@@QEBAXAEAV?$vector@VUMat@cv@@V?$allocator@VUMat@cv@@@std@@@std@@@Z
?getVersionMajor@cv@@YAHXZ
?getVersionMinor@cv@@YAHXZ
?getVersionRevision@cv@@YAHXZ
?getVersionString@cv@@YA?AV?$basic_string@DU?$char_traits@D@std@@V?$allocator@D@2@@std@@XZ
?getcwd@fs@utils@cv@@YA?AV?$basic_string@DU?$char_traits@D@std@@V?$allocator@D@2@@std@@XZ
?glob@cv@@YAXV?$basic_string@DU?$char_traits@D@std@@V?$allocator@D@2@@std@@AEAV?$vector@V?$basic_string@DU?$char_traits@D@std@@V?$allocator@D@2@@std@@V?$allocator@V?$basic_string@DU?$char_traits@D@std@@V?$allocator@D@2@@std@@@2@@3@_N@Z
?glob@fs@utils@cv@@YAXAEBV?$basic_string@DU?$char_traits@D@std@@V?$allocator@D@2@@std@@0AEAV?$vector@V?$basic_string@DU?$char_traits@D@std@@V?$allocator@D@2@@std@@V?$allocator@V?$basic_string@DU?$char_traits@D@std@@V?$allocator@D@2@@std@@@2@@5@_N2@Z
?glob_relative@fs@utils@cv@@YAXAEBV?$basic_string@DU?$char_traits@D@std@@V?$allocator@D@2@@std@@0AEAV?$vector@V?$basic_string@DU?$char_traits@D@std@@V?$allocator@D@2@@std@@V?$allocator@V?$basic_string@DU?$char_traits@D@std@@V?$allocator@D@2@@std@@@2@@5@_N2@Z
?globalMemCacheLineSize@Device@ocl@cv@@QEBAHXZ
?globalMemCacheSize@Device@ocl@cv@@QEBA_KXZ
?globalMemCacheType@Device@ocl@cv@@QEBAHXZ
?globalMemSize@Device@ocl@cv@@QEBA_KXZ
?halfFPConfig@Device@ocl@cv@@QEBAHXZ
?handle@UMat@cv@@QEBAPEAXW4AccessFlag@2@@Z
?has@CommandLineParser@cv@@QEBA_NAEBV?$basic_string@DU?$char_traits@D@std@@V?$allocator@D@2@@std@@@Z
?has@TargetArchs@cuda@cv@@SA_NHH@Z
?hasBin@TargetArchs@cuda@cv@@SA_NHH@Z
?hasEqualOrGreater@TargetArchs@cuda@cv@@SA_NHH@Z
?hasEqualOrGreaterBin@TargetArchs@cuda@cv@@SA_NHH@Z
?hasEqualOrGreaterPtx@TargetArchs@cuda@cv@@SA_NHH@Z
?hasEqualOrLessPtx@TargetArchs@cuda@cv@@SA_NHH@Z
?hasPtx@TargetArchs@cuda@cv@@SA_NHH@Z
?hash@KeyPoint@cv@@QEBA_KXZ
?hash@ProgramSource@ocl@cv@@QEBA_KXZ
?hash@SparseMat@cv@@QEBA_KH@Z
?hash@SparseMat@cv@@QEBA_KHH@Z
?hash@SparseMat@cv@@QEBA_KHHH@Z
?hash@SparseMat@cv@@QEBA_KPEBH@Z
?haveAmdBlas@ocl@cv@@YA_NXZ
?haveAmdFft@ocl@cv@@YA_NXZ
?haveOpenCL@ocl@cv@@YA_NXZ
?haveOpenVX@cv@@YA_NXZ
?haveSVM@ocl@cv@@YA_NXZ
?hconcat@cv@@YAXAEBV_InputArray@1@0AEBV_OutputArray@1@@Z
?hconcat@cv@@YAXAEBV_InputArray@1@AEBV_OutputArray@1@@Z
?hconcat@cv@@YAXPEBVMat@1@_KAEBV_OutputArray@1@@Z
?hostCopyObsolete@UMatData@cv@@QEBA_NXZ
?hostUnifiedMemory@Device@ocl@cv@@QEBA_NXZ
?idct@cv@@YAXAEBV_InputArray@1@AEBV_OutputArray@1@H@Z
?idft@cv@@YAXAEBV_InputArray@1@AEBV_OutputArray@1@HH@Z
?image2DMaxHeight@Device@ocl@cv@@QEBA_KXZ
?image2DMaxWidth@Device@ocl@cv@@QEBA_KXZ
?image3DMaxDepth@Device@ocl@cv@@QEBA_KXZ
?image3DMaxHeight@Device@ocl@cv@@QEBA_KXZ
?image3DMaxWidth@Device@ocl@cv@@QEBA_KXZ
?imageBaseAddressAlignment@Device@ocl@cv@@QEBAIXZ
?imageFromBufferSupport@Device@ocl@cv@@QEBA_NXZ
?imageMaxArraySize@Device@ocl@cv@@QEBA_KXZ
?imageMaxBufferSize@Device@ocl@cv@@QEBA_KXZ
?imagePitchAlignment@Device@ocl@cv@@QEBAIXZ
?imageSupport@Device@ocl@cv@@QEBA_NXZ
?inRange@cv@@YAXAEBV_InputArray@1@00AEBV_OutputArray@1@@Z
?inf@softdouble@cv@@SA?AU12@XZ
?inf@softfloat@cv@@SA?AU12@XZ
?init@NAryMatIterator@cv@@QEAAXPEAPEBVMat@2@PEAV32@PEAPEAEH@Z
?init@_InputArray@cv@@IEAAXHPEBX@Z
?init@_InputArray@cv@@IEAAXHPEBXV?$Size_@H@2@@Z
?initializeContextFromD3D10Device@ocl@directx@cv@@YAAEAVContext@13@PEAUID3D10Device@@@Z
?initializeContextFromD3D11Device@ocl@directx@cv@@YAAEAVContext@13@PEAUID3D11Device@@@Z
?initializeContextFromDirect3DDevice9@ocl@directx@cv@@YAAEAVContext@13@PEAUIDirect3DDevice9@@@Z
?initializeContextFromDirect3DDevice9Ex@ocl@directx@cv@@YAAEAVContext@13@PEAUIDirect3DDevice9Ex@@@Z
?initializeContextFromGL@ocl@ogl@cv@@YAAEAVContext@13@XZ
?initializeContextFromVA@ocl@va_intel@cv@@YAAEAVContext@13@PEAX_N@Z
?insertChannel@cv@@YAXAEBV_InputArray@1@AEBV_InputOutputArray@1@H@Z
?insertImageCOI@cv@@YAXAEBV_InputArray@1@PEAXH@Z
?integrated@DeviceInfo@cuda@cv@@QEBA_NXZ
?intelSubgroupsSupport@Device@ocl@cv@@QEBA_NXZ
?inv@Mat@cv@@QEBA?AVMatExpr@2@H@Z
?inv@MatExpr@cv@@QEBA?AV12@H@Z
?inv@UMat@cv@@QEBA?AV12@H@Z
?invSqrt32f@hal@cv@@YAXPEBMPEAMH@Z
?invSqrt64f@hal@cv@@YAXPEBNPEANH@Z
?invSqrt@hal@cv@@YAXPEBMPEAMH@Z
?invSqrt@hal@cv@@YAXPEBNPEANH@Z
?invert@MatOp@cv@@UEBAXAEBVMatExpr@2@HAEAV32@@Z
?invert@cv@@YANAEBV_InputArray@1@AEBV_OutputArray@1@H@Z
?isAMD@Device@ocl@cv@@QEBA_NXZ
?isActivated@TraceManager@details@trace@utils@cv@@SA_NXZ
?isActive@Region@details@trace@utils@cv@@QEBA_NXZ
?isCLBuffer@internal@ocl@cv@@YA_NAEAVUMat@3@@Z
?isCollection@FileNode@cv@@SA_NH@Z
?isCompatible@DeviceInfo@cuda@cv@@QEBA_NXZ
?isContinuous@GpuMat@cuda@cv@@QEBA_NXZ
?isContinuous@HostMem@cuda@cv@@QEBA_NXZ
?isContinuous@Mat@cv@@QEBA_NXZ
?isContinuous@UMat@cv@@QEBA_NXZ
?isContinuous@_InputArray@cv@@QEBA_NH@Z
?isDirectory@fs@utils@cv@@YA_NAEBV?$basic_string@DU?$char_traits@D@std@@V?$allocator@D@2@@std@@@Z
?isEmptyCollection@FileNode@cv@@SA_NH@Z
?isExtensionSupported@Device@ocl@cv@@QEBA_NAEBV?$basic_string@DU?$char_traits@D@std@@V?$allocator@D@2@@std@@@Z
?isFlow@FileNode@cv@@SA_NH@Z
?isFormatSupported@Image2D@ocl@cv@@SA_NHH_N@Z
?isGpuMat@_InputArray@cv@@QEBA_NXZ
?isGpuMatVector@_InputArray@cv@@QEBA_NXZ
?isInf@softdouble@cv@@QEBA_NXZ
?isInf@softfloat@cv@@QEBA_NXZ
?isInt@FileNode@cv@@QEBA_NXZ
?isIntel@Device@ocl@cv@@QEBA_NXZ
?isMap@FileNode@cv@@QEBA_NXZ
?isMap@FileNode@cv@@SA_NH@Z
?isMat@_InputArray@cv@@QEBA_NXZ
?isMatVector@_InputArray@cv@@QEBA_NXZ
?isMatx@_InputArray@cv@@QEBA_NXZ
?isNVidia@Device@ocl@cv@@QEBA_NXZ
?isNaN@softdouble@cv@@QEBA_NXZ
?isNaN@softfloat@cv@@QEBA_NXZ
?isNamed@FileNode@cv@@QEBA_NXZ
?isNone@FileNode@cv@@QEBA_NXZ
?isOpenCLActivated@ocl@cv@@YA_NXZ
?isOpenCLForced@internal@ocl@cv@@YA_NXZ
?isOpened@FileStorage@cv@@UEBA_NXZ
?isPerformanceCheckBypassed@internal@ocl@cv@@YA_NXZ
?isReal@FileNode@cv@@QEBA_NXZ
?isSeq@FileNode@cv@@QEBA_NXZ
?isSeq@FileNode@cv@@SA_NH@Z
?isString@FileNode@cv@@QEBA_NXZ
?isSubmatrix@Mat@cv@@QEBA_NXZ
?isSubmatrix@UMat@cv@@QEBA_NXZ
?isSubmatrix@_InputArray@cv@@QEBA_NH@Z
?isSubnormal@softdouble@cv@@QEBA_NXZ
?isSubnormal@softfloat@cv@@QEBA_NXZ
?isUMat@_InputArray@cv@@QEBA_NXZ
?isUMatVector@_InputArray@cv@@QEBA_NXZ
?isValid@TermCriteria@cv@@QEBA_NXZ
?isVector@_InputArray@cv@@QEBA_NXZ
?join@fs@utils@cv@@YA?AV?$basic_string@DU?$char_traits@D@std@@V?$allocator@D@2@@std@@AEBV45@0@Z
?kernelExecTimeoutEnabled@DeviceInfo@cuda@cv@@QEBA_NXZ
?kernelToStr@ocl@cv@@YA?AV?$basic_string@DU?$char_traits@D@std@@V?$allocator@D@2@@std@@AEBV_InputArray@2@HPEBD@Z
?keys@FileNode@cv@@QEBA?AV?$vector@V?$basic_string@DU?$char_traits@D@std@@V?$allocator@D@2@@std@@V?$allocator@V?$basic_string@DU?$char_traits@D@std@@V?$allocator@D@2@@std@@@2@@std@@XZ
?kind@_InputArray@cv@@QEBA?AW4KindFlag@12@XZ
?kmeans@cv@@YANAEBV_InputArray@1@HAEBV_InputOutputArray@1@VTermCriteria@1@HHAEBV_OutputArray@1@@Z
?l2CacheSize@DeviceInfo@cuda@cv@@QEBAHXZ
?lda@LDA@cv@@IEAAXAEBV_InputArray@2@0@Z
?linkerAvailable@Device@ocl@cv@@QEBA_NXZ
?load@LDA@cv@@QEAAXAEBV?$basic_string@DU?$char_traits@D@std@@V?$allocator@D@2@@std@@@Z
?load@LDA@cv@@QEAAXAEBVFileStorage@2@@Z
?localMemSize@Device@ocl@cv@@QEBA_KXZ
?localMemSize@Kernel@ocl@cv@@QEBA_KXZ
?localMemType@Device@ocl@cv@@QEBAHXZ
?locateROI@GpuMat@cuda@cv@@QEBAXAEAV?$Size_@H@3@AEAV?$Point_@H@3@@Z
?locateROI@Mat@cv@@QEBAXAEAV?$Size_@H@2@AEAV?$Point_@H@2@@Z
?locateROI@UMat@cv@@QEBAXAEAV?$Size_@H@2@AEAV?$Point_@H@2@@Z
?lock@FileLock@fs@utils@cv@@QEAAXXZ
?lock@UMatData@cv@@QEAAXXZ
?lock_shared@FileLock@fs@utils@cv@@QEAAXXZ
?log32f@hal@cv@@YAXPEBMPEAMH@Z
?log64f@hal@cv@@YAXPEBNPEANH@Z
?log@cv@@YA?AUsoftdouble@1@AEBU21@@Z
?log@cv@@YA?AUsoftfloat@1@AEBU21@@Z
?log@cv@@YAXAEBV_InputArray@1@AEBV_OutputArray@1@@Z
?log@hal@cv@@YAXPEBMPEAMH@Z
?log@hal@cv@@YAXPEBNPEANH@Z
?lpos@MatConstIterator@cv@@QEBA_JXZ
?magnitude32f@hal@cv@@YAXPEBM0PEAMH@Z
?magnitude64f@hal@cv@@YAXPEBN0PEANH@Z
?magnitude@cv@@YAXAEBV_InputArray@1@0AEBV_OutputArray@1@@Z
?magnitude@hal@cv@@YAXPEBM0PEAMH@Z
?magnitude@hal@cv@@YAXPEBN0PEANH@Z
?majorVersion@DeviceInfo@cuda@cv@@QEBAHXZ
?map@MatAllocator@cv@@UEBAXPEAUUMatData@2@W4AccessFlag@2@@Z
?mapDevice@Buffer@ogl@cv@@QEAA?AVGpuMat@cuda@3@AEAVStream@53@@Z
?mapDevice@Buffer@ogl@cv@@QEAA?AVGpuMat@cuda@3@XZ
?mapGLBuffer@ogl@cv@@YA?AVUMat@2@AEBVBuffer@12@W4AccessFlag@2@@Z
?mapHost@Buffer@ogl@cv@@QEAA?AVMat@3@W4Access@123@@Z
?markDeviceCopyObsolete@UMatData@cv@@QEAAX_N@Z
?markDeviceMemMapped@UMatData@cv@@QEAAX_N@Z
?markHostCopyObsolete@UMatData@cv@@QEAAX_N@Z
?mat@FileNode@cv@@QEBA?AVMat@2@XZ
?matmul@MatOp@cv@@UEBAXAEBVMatExpr@2@0AEAV32@@Z
?max16s@hal@cv@@YAXPEBF_K01PEAF1HHPEAX@Z
?max16u@hal@cv@@YAXPEBG_K01PEAG1HHPEAX@Z
?max32f@hal@cv@@YAXPEBM_K01PEAM1HHPEAX@Z
?max32s@hal@cv@@YAXPEBH_K01PEAH1HHPEAX@Z
?max64f@hal@cv@@YAXPEBN_K01PEAN1HHPEAX@Z
?max8s@hal@cv@@YAXPEBC_K01PEAC1HHPEAX@Z
?max8u@hal@cv@@YAXPEBE_K01PEAE1HHPEAX@Z
?max@cv@@YA?AVMatExpr@1@AEBVMat@1@0@Z
?max@cv@@YA?AVMatExpr@1@AEBVMat@1@N@Z
?max@cv@@YA?AVMatExpr@1@NAEBVMat@1@@Z
?max@cv@@YAXAEBVMat@1@0AEAV21@@Z
?max@cv@@YAXAEBVUMat@1@0AEAV21@@Z
?max@cv@@YAXAEBV_InputArray@1@0AEBV_OutputArray@1@@Z
?max@softdouble@cv@@SA?AU12@XZ
?max@softfloat@cv@@SA?AU12@XZ
?maxClockFrequency@Device@ocl@cv@@QEBAHXZ
?maxComputeUnits@Device@ocl@cv@@QEBAHXZ
?maxConstantArgs@Device@ocl@cv@@QEBAHXZ
?maxConstantBufferSize@Device@ocl@cv@@QEBA_KXZ
?maxGridSize@DeviceInfo@cuda@cv@@QEBA?AV?$Vec@H$02@3@XZ
?maxMemAllocSize@Device@ocl@cv@@QEBA_KXZ
?maxParameterSize@Device@ocl@cv@@QEBA_KXZ
?maxReadImageArgs@Device@ocl@cv@@QEBAHXZ
?maxSamplers@Device@ocl@cv@@QEBAHXZ
?maxSurface1D@DeviceInfo@cuda@cv@@QEBAHXZ
?maxSurface1DLayered@DeviceInfo@cuda@cv@@QEBA?AV?$Vec@H$01@3@XZ
?maxSurface2D@DeviceInfo@cuda@cv@@QEBA?AV?$Vec@H$01@3@XZ
?maxSurface2DLayered@DeviceInfo@cuda@cv@@QEBA?AV?$Vec@H$02@3@XZ
?maxSurface3D@DeviceInfo@cuda@cv@@QEBA?AV?$Vec@H$02@3@XZ
?maxSurfaceCubemap@DeviceInfo@cuda@cv@@QEBAHXZ
?maxSurfaceCubemapLayered@DeviceInfo@cuda@cv@@QEBA?AV?$Vec@H$01@3@XZ
?maxTexture1D@DeviceInfo@cuda@cv@@QEBAHXZ
?maxTexture1DLayered@DeviceInfo@cuda@cv@@QEBA?AV?$Vec@H$01@3@XZ
?maxTexture1DLinear@DeviceInfo@cuda@cv@@QEBAHXZ
?maxTexture1DMipmap@DeviceInfo@cuda@cv@@QEBAHXZ
?maxTexture2D@DeviceInfo@cuda@cv@@QEBA?AV?$Vec@H$01@3@XZ
?maxTexture2DGather@DeviceInfo@cuda@cv@@QEBA?AV?$Vec@H$01@3@XZ
?maxTexture2DLayered@DeviceInfo@cuda@cv@@QEBA?AV?$Vec@H$02@3@XZ
?maxTexture2DLinear@DeviceInfo@cuda@cv@@QEBA?AV?$Vec@H$02@3@XZ
?maxTexture2DMipmap@DeviceInfo@cuda@cv@@QEBA?AV?$Vec@H$01@3@XZ
?maxTexture3D@DeviceInfo@cuda@cv@@QEBA?AV?$Vec@H$02@3@XZ
?maxTextureCubemap@DeviceInfo@cuda@cv@@QEBAHXZ
?maxTextureCubemapLayered@DeviceInfo@cuda@cv@@QEBA?AV?$Vec@H$01@3@XZ
?maxThreadsDim@DeviceInfo@cuda@cv@@QEBA?AV?$Vec@H$02@3@XZ
?maxThreadsPerBlock@DeviceInfo@cuda@cv@@QEBAHXZ
?maxThreadsPerMultiProcessor@DeviceInfo@cuda@cv@@QEBAHXZ
?maxWorkGroupSize@Device@ocl@cv@@QEBA_KXZ
?maxWorkItemDims@Device@ocl@cv@@QEBAHXZ
?maxWorkItemSizes@Device@ocl@cv@@QEBAXPEA_K@Z
?maxWriteImageArgs@Device@ocl@cv@@QEBAHXZ
?mean@cv@@YA?AV?$Scalar_@N@1@AEBV_InputArray@1@0@Z
?meanStdDev@cv@@YAXAEBV_InputArray@1@AEBV_OutputArray@1@10@Z
?memBaseAddrAlign@Device@ocl@cv@@QEBAHXZ
?memPitch@DeviceInfo@cuda@cv@@QEBA_KXZ
?memopTypeToStr@ocl@cv@@YAPEBDH@Z
?memoryBusWidth@DeviceInfo@cuda@cv@@QEBAHXZ
?memoryClockRate@DeviceInfo@cuda@cv@@QEBAHXZ
?merge16u@hal@cv@@YAXPEAPEBGPEAGHH@Z
?merge32s@hal@cv@@YAXPEAPEBHPEAHHH@Z
?merge64s@hal@cv@@YAXPEAPEB_JPEA_JHH@Z
?merge8u@hal@cv@@YAXPEAPEBEPEAEHH@Z
?merge@cv@@YAXAEBV_InputArray@1@AEBV_OutputArray@1@@Z
?merge@cv@@YAXPEBVMat@1@_KAEBV_OutputArray@1@@Z
?min16s@hal@cv@@YAXPEBF_K01PEAF1HHPEAX@Z
?min16u@hal@cv@@YAXPEBG_K01PEAG1HHPEAX@Z
?min32f@hal@cv@@YAXPEBM_K01PEAM1HHPEAX@Z
?min32s@hal@cv@@YAXPEBH_K01PEAH1HHPEAX@Z
?min64f@hal@cv@@YAXPEBN_K01PEAN1HHPEAX@Z
?min8s@hal@cv@@YAXPEBC_K01PEAC1HHPEAX@Z
?min8u@hal@cv@@YAXPEBE_K01PEAE1HHPEAX@Z
?min@cv@@YA?AVMatExpr@1@AEBVMat@1@0@Z
?min@cv@@YA?AVMatExpr@1@AEBVMat@1@N@Z
?min@cv@@YA?AVMatExpr@1@NAEBVMat@1@@Z
?min@cv@@YAXAEBVMat@1@0AEAV21@@Z
?min@cv@@YAXAEBVUMat@1@0AEAV21@@Z
?min@cv@@YAXAEBV_InputArray@1@0AEBV_OutputArray@1@@Z
?min@softdouble@cv@@SA?AU12@XZ
?min@softfloat@cv@@SA?AU12@XZ
?minMaxIdx@cv@@YAXAEBV_InputArray@1@PEAN1PEAH20@Z
?minMaxLoc@cv@@YAXAEBVSparseMat@1@PEAN1PEAH2@Z
?minMaxLoc@cv@@YAXAEBV_InputArray@1@PEAN1PEAV?$Point_@H@1@20@Z
?minorVersion@DeviceInfo@cuda@cv@@QEBAHXZ
?mixChannels@cv@@YAXAEBV_InputArray@1@AEBV_InputOutputArray@1@AEBV?$vector@HV?$allocator@H@std@@@std@@@Z
?mixChannels@cv@@YAXAEBV_InputArray@1@AEBV_InputOutputArray@1@PEBH_K@Z
?mixChannels@cv@@YAXPEBVMat@1@_KPEAV21@1PEBH1@Z
?move@_OutputArray@cv@@QEBAXAEAVMat@2@@Z
?move@_OutputArray@cv@@QEBAXAEAVUMat@2@@Z
?mul16s@hal@cv@@YAXPEBF_K01PEAF1HHPEAX@Z
?mul16u@hal@cv@@YAXPEBG_K01PEAG1HHPEAX@Z
?mul32f@hal@cv@@YAXPEBM_K01PEAM1HHPEAX@Z
?mul32s@hal@cv@@YAXPEBH_K01PEAH1HHPEAX@Z
?mul64f@hal@cv@@YAXPEBN_K01PEAN1HHPEAX@Z
?mul8s@hal@cv@@YAXPEBC_K01PEAC1HHPEAX@Z
?mul8u@hal@cv@@YAXPEBE_K01PEAE1HHPEAX@Z
?mul@Mat@cv@@QEBA?AVMatExpr@2@AEBV_InputArray@2@N@Z
?mul@MatExpr@cv@@QEBA?AV12@AEBV12@N@Z
?mul@MatExpr@cv@@QEBA?AV12@AEBVMat@2@N@Z
?mul@UMat@cv@@QEBA?AV12@AEBV_InputArray@2@N@Z
?mulAdd@cv@@YA?AUsoftdouble@1@AEBU21@00@Z
?mulAdd@cv@@YA?AUsoftfloat@1@AEBU21@00@Z
?mulSpectrums@cv@@YAXAEBV_InputArray@1@0AEBV_OutputArray@1@H_N@Z
?mulTransposed@cv@@YAXAEBV_InputArray@1@AEBV_OutputArray@1@_N0NH@Z
?multiProcessorCount@DeviceInfo@cuda@cv@@QEBAHXZ
?multiply@MatOp@cv@@UEBAXAEBVMatExpr@2@0AEAV32@N@Z
?multiply@MatOp@cv@@UEBAXAEBVMatExpr@2@NAEAV32@@Z
?multiply@cv@@YAXAEBV_InputArray@1@0AEBV_OutputArray@1@NH@Z
?name@Device@ocl@cv@@QEBA?AV?$basic_string@DU?$char_traits@D@std@@V?$allocator@D@2@@std@@XZ
?name@DeviceInfo@cuda@cv@@QEBAPEBDXZ
?name@FileNode@cv@@QEBA?AV?$basic_string@DU?$char_traits@D@std@@V?$allocator@D@2@@std@@XZ
?name@PlatformInfo@ocl@cv@@QEBA?AV?$basic_string@DU?$char_traits@D@std@@V?$allocator@D@2@@std@@XZ
?nan@softdouble@cv@@SA?AU12@XZ
?nan@softfloat@cv@@SA?AU12@XZ
?nativeVectorWidthChar@Device@ocl@cv@@QEBAHXZ
?nativeVectorWidthDouble@Device@ocl@cv@@QEBAHXZ
?nativeVectorWidthFloat@Device@ocl@cv@@QEBAHXZ
?nativeVectorWidthHalf@Device@ocl@cv@@QEBAHXZ
?nativeVectorWidthInt@Device@ocl@cv@@QEBAHXZ
?nativeVectorWidthLong@Device@ocl@cv@@QEBAHXZ
?nativeVectorWidthShort@Device@ocl@cv@@QEBAHXZ
?ndevices@Context@ocl@cv@@QEBA_KXZ
?ndoffset@UMat@cv@@QEBAXPEA_K@Z
?needed@_OutputArray@cv@@QEBA_NXZ
?newNode@SparseMat@cv@@QEAAPEAEPEBH_K@Z
?next@RNG@cv@@QEAAIXZ
?next@RNG_MT19937@cv@@QEAAIXZ
?noArray@cv@@YAAEBV_InputOutputArray@1@XZ
?node@SparseMat@cv@@QEAAPEAUNode@12@_K@Z
?node@SparseMat@cv@@QEBAPEBUNode@12@_K@Z
?node@SparseMatConstIterator@cv@@QEBAPEBUNode@SparseMat@2@XZ
?node@SparseMatIterator@cv@@QEBAPEAUNode@SparseMat@2@XZ
?norm@cv@@YANAEBVSparseMat@1@H@Z
?norm@cv@@YANAEBV_InputArray@1@0H0@Z
?norm@cv@@YANAEBV_InputArray@1@H0@Z
?normHamming@hal@cv@@YAHPEBE0H@Z
?normHamming@hal@cv@@YAHPEBE0HH@Z
?normHamming@hal@cv@@YAHPEBEH@Z
?normHamming@hal@cv@@YAHPEBEHH@Z
?normL1_@hal@cv@@YAHPEBE0H@Z
?normL1_@hal@cv@@YAMPEBM0H@Z
?normL2Sqr_@hal@cv@@YAMPEBM0H@Z
?normalize@cv@@YAXAEBVSparseMat@1@AEAV21@NH@Z
?normalize@cv@@YAXAEBV_InputArray@1@AEBV_InputOutputArray@1@NNHH0@Z
?not8u@hal@cv@@YAXPEBE_K01PEAE1HHPEAX@Z
?nzcount@SparseMat@cv@@QEBA_KXZ
?offset@_InputArray@cv@@QEBA_KH@Z
?one@softdouble@cv@@SA?AU12@XZ
?one@softfloat@cv@@SA?AU12@XZ
?ones@Mat@cv@@SA?AVMatExpr@2@HHH@Z
?ones@Mat@cv@@SA?AVMatExpr@2@HPEBHH@Z
?ones@Mat@cv@@SA?AVMatExpr@2@V?$Size_@H@2@H@Z
?ones@UMat@cv@@SA?AV12@HHH@Z
?ones@UMat@cv@@SA?AV12@HPEBHH@Z
?ones@UMat@cv@@SA?AV12@V?$Size_@H@2@H@Z
?open@FileStorage@cv@@UEAA_NAEBV?$basic_string@DU?$char_traits@D@std@@V?$allocator@D@2@@std@@H0@Z
?or8u@hal@cv@@YAXPEBE_K01PEAE1HHPEAX@Z
?overlap@KeyPoint@cv@@SAMAEBV12@0@Z
?parallel_for_@cv@@YAXAEBVRange@1@AEBVParallelLoopBody@1@N@Z
?patchNaNs@cv@@YAXAEBV_InputOutputArray@1@N@Z
?pciBusID@DeviceInfo@cuda@cv@@QEBAHXZ
?pciDeviceID@DeviceInfo@cuda@cv@@QEBAHXZ
?pciDomainID@DeviceInfo@cuda@cv@@QEBAHXZ
?perspectiveTransform@cv@@YAXAEBV_InputArray@1@AEBV_OutputArray@1@0@Z
?phase@cv@@YAXAEBV_InputArray@1@0AEBV_OutputArray@1@_N@Z
?pi@softdouble@cv@@SA?AU12@XZ
?pi@softfloat@cv@@SA?AU12@XZ
?points@RotatedRect@cv@@QEBAXQEAV?$Point_@M@2@@Z
?polarToCart@cv@@YAXAEBV_InputArray@1@0AEBV_OutputArray@1@1_N@Z
?pop_back@Mat@cv@@QEAAX_K@Z
?pos@MatConstIterator@cv@@QEBA?AV?$Point_@H@2@XZ
?pos@MatConstIterator@cv@@QEBAXPEAH@Z
?pow@cv@@YA?AUsoftdouble@1@AEBU21@0@Z
?pow@cv@@YA?AUsoftfloat@1@AEBU21@0@Z
?pow@cv@@YAXAEBV_InputArray@1@NAEBV_OutputArray@1@@Z
?predictOptimalVectorWidth@ocl@cv@@YAHAEBV_InputArray@2@00000000W4OclVectorStrategy@12@@Z
?predictOptimalVectorWidthMax@ocl@cv@@YAHAEBV_InputArray@2@00000000@Z
?preferedWorkGroupSizeMultiple@Kernel@ocl@cv@@QEBA_KXZ
?preferredVectorWidthChar@Device@ocl@cv@@QEBAHXZ
?preferredVectorWidthDouble@Device@ocl@cv@@QEBAHXZ
?preferredVectorWidthFloat@Device@ocl@cv@@QEBAHXZ
?preferredVectorWidthHalf@Device@ocl@cv@@QEBAHXZ
?preferredVectorWidthInt@Device@ocl@cv@@QEBAHXZ
?preferredVectorWidthLong@Device@ocl@cv@@QEBAHXZ
?preferredVectorWidthShort@Device@ocl@cv@@QEBAHXZ
?printCudaDeviceInfo@cuda@cv@@YAXH@Z
?printErrors@CommandLineParser@cv@@QEBAXXZ
?printMessage@CommandLineParser@cv@@QEBAXXZ
?printShortCudaDeviceInfo@cuda@cv@@YAXH@Z
?printfBufferSize@Device@ocl@cv@@QEBA_KXZ
?profilingTimerResolution@Device@ocl@cv@@QEBA_KXZ
?project@LDA@cv@@QEAA?AVMat@2@AEBV_InputArray@2@@Z
?project@PCA@cv@@QEBA?AVMat@2@AEBV_InputArray@2@@Z
?project@PCA@cv@@QEBAXAEBV_InputArray@2@AEBV_OutputArray@2@@Z
?ptr@Context@ocl@cv@@QEBAPEAXXZ
?ptr@Device@ocl@cv@@QEBAPEAXXZ
?ptr@FileNode@cv@@QEAAPEAEXZ
?ptr@FileNode@cv@@QEBAPEBEXZ
?ptr@GpuMat@cuda@cv@@QEAAPEAEH@Z
?ptr@GpuMat@cuda@cv@@QEBAPEBEH@Z
?ptr@Image2D@ocl@cv@@QEBAPEAXXZ
?ptr@Kernel@ocl@cv@@QEBAPEAXXZ
?ptr@Mat@cv@@QEAAPEAEH@Z
?ptr@Mat@cv@@QEAAPEAEHH@Z
?ptr@Mat@cv@@QEAAPEAEHHH@Z
?ptr@Mat@cv@@QEAAPEAEPEBH@Z
?ptr@Mat@cv@@QEBAPEBEH@Z
?ptr@Mat@cv@@QEBAPEBEHH@Z
?ptr@Mat@cv@@QEBAPEBEHHH@Z
?ptr@Mat@cv@@QEBAPEBEPEBH@Z
?ptr@Platform@ocl@cv@@QEBAPEAXXZ
?ptr@Program@ocl@cv@@QEBAPEAXXZ
?ptr@Queue@ocl@cv@@QEBAPEAXXZ
?ptr@SparseMat@cv@@QEAAPEAEHHH_NPEA_K@Z
?ptr@SparseMat@cv@@QEAAPEAEHH_NPEA_K@Z
?ptr@SparseMat@cv@@QEAAPEAEH_NPEA_K@Z
?ptr@SparseMat@cv@@QEAAPEAEPEBH_NPEA_K@Z
?push_back@Mat@cv@@QEAAXAEBV12@@Z
?push_back_@Mat@cv@@QEAAXPEBX@Z
?queryIfComplete@Event@cuda@cv@@QEBA_NXZ
?queryIfComplete@Stream@cuda@cv@@QEBA_NXZ
?queryMemory@DeviceInfo@cuda@cv@@QEBAXAEA_K0@Z
?randShuffle@cv@@YAXAEBV_InputOutputArray@1@NPEAVRNG@1@@Z
?randn@cv@@YAXAEBV_InputOutputArray@1@AEBV_InputArray@1@1@Z
?randu@cv@@YAXAEBV_InputOutputArray@1@AEBV_InputArray@1@1@Z
?rawSize@FileNode@cv@@QEBA_KXZ
?read@Algorithm@cv@@UEAAXAEBVFileNode@2@@Z
?read@PCA@cv@@QEAAXAEBVFileNode@2@@Z
?read@Program@ocl@cv@@QEAA_NAEBV?$basic_string@DU?$char_traits@D@std@@V?$allocator@D@2@@std@@0@Z
?read@cv@@YAXAEBVFileNode@1@AEAHH@Z
?read@cv@@YAXAEBVFileNode@1@AEAMM@Z
?read@cv@@YAXAEBVFileNode@1@AEANN@Z
?read@cv@@YAXAEBVFileNode@1@AEAV?$basic_string@DU?$char_traits@D@std@@V?$allocator@D@2@@std@@AEBV34@@Z
?read@cv@@YAXAEBVFileNode@1@AEAV?$vector@VDMatch@cv@@V?$allocator@VDMatch@cv@@@std@@@std@@@Z
?read@cv@@YAXAEBVFileNode@1@AEAV?$vector@VKeyPoint@cv@@V?$allocator@VKeyPoint@cv@@@std@@@std@@@Z
?read@cv@@YAXAEBVFileNode@1@AEAVDMatch@1@AEBV31@@Z
?read@cv@@YAXAEBVFileNode@1@AEAVKeyPoint@1@AEBV31@@Z
?read@cv@@YAXAEBVFileNode@1@AEAVMat@1@AEBV31@@Z
?read@cv@@YAXAEBVFileNode@1@AEAVSparseMat@1@AEBV31@@Z
?readRaw@FileNode@cv@@QEBAXAEBV?$basic_string@DU?$char_traits@D@std@@V?$allocator@D@2@@std@@PEAX_K@Z
?readRaw@FileNodeIterator@cv@@QEAAAEAV12@AEBV?$basic_string@DU?$char_traits@D@std@@V?$allocator@D@2@@std@@PEAX_K@Z
?real@FileNode@cv@@QEBANXZ
?recip16s@hal@cv@@YAXPEBF_K01PEAF1HHPEAX@Z
?recip16u@hal@cv@@YAXPEBG_K01PEAG1HHPEAX@Z
?recip32f@hal@cv@@YAXPEBM_K01PEAM1HHPEAX@Z
?recip32s@hal@cv@@YAXPEBH_K01PEAH1HHPEAX@Z
?recip64f@hal@cv@@YAXPEBN_K01PEAN1HHPEAX@Z
?recip8s@hal@cv@@YAXPEBC_K01PEAC1HHPEAX@Z
?recip8u@hal@cv@@YAXPEBE_K01PEAE1HHPEAX@Z
?reconstruct@LDA@cv@@QEAA?AVMat@2@AEBV_InputArray@2@@Z
?record@Event@cuda@cv@@QEAAXAEAVStream@23@@Z
?redirectError@cv@@YAP6AHHPEBD00HPEAX@ZP6AHH000H1@Z1PEAPEAX@Z
?reduce@cv@@YAXAEBV_InputArray@1@AEBV_OutputArray@1@HHH@Z
?registerLogTag@logging@utils@cv@@YAXPEAULogTag@123@@Z
?registerPageLocked@cuda@cv@@YAXAEAVMat@2@@Z
?regsPerBlock@DeviceInfo@cuda@cv@@QEBAHXZ
?release@Arrays@ogl@cv@@QEAAXXZ
?release@AsyncArray@cv@@QEAAXXZ
?release@AsyncPromise@cv@@QEAAXXZ
?release@Buffer@ogl@cv@@QEAAXXZ
?release@FileStorage@cv@@UEAAXXZ
?release@GpuMat@cuda@cv@@QEAAXXZ
?release@HostMem@cuda@cv@@QEAAXXZ
?release@Mat@cv@@QEAAXXZ
?release@SparseMat@cv@@QEAAXXZ
?release@TLSDataContainer@cv@@IEAAXXZ
?release@Texture2D@ogl@cv@@QEAAXXZ
?release@UMat@cv@@QEAAXXZ
?release@_OutputArray@cv@@QEBAXXZ
?releaseAndGetString@FileStorage@cv@@UEAA?AV?$basic_string@DU?$char_traits@D@std@@V?$allocator@D@2@@std@@XZ
?remaining@FileNodeIterator@cv@@QEBA_KXZ
?removeNode@SparseMat@cv@@QEAAX_K00@Z
?remove_all@fs@utils@cv@@YAXAEBV?$basic_string@DU?$char_traits@D@std@@V?$allocator@D@2@@std@@@Z
?render@ogl@cv@@YAXAEBVArrays@12@AEBV_InputArray@2@HV?$Scalar_@N@2@@Z
?render@ogl@cv@@YAXAEBVArrays@12@HV?$Scalar_@N@2@@Z
?render@ogl@cv@@YAXAEBVTexture2D@12@V?$Rect_@N@2@1@Z
?repeat@cv@@YA?AVMat@1@AEBV21@HH@Z
?repeat@cv@@YAXAEBV_InputArray@1@HHAEBV_OutputArray@1@@Z
?reserve@Mat@cv@@QEAAX_K@Z
?reserveBuffer@Mat@cv@@QEAAX_K@Z
?reset@TickMeter@cv@@QEAAXXZ
?resetColorArray@Arrays@ogl@cv@@QEAAXXZ
?resetDevice@cuda@cv@@YAXXZ
?resetNormalArray@Arrays@ogl@cv@@QEAAXXZ
?resetTexCoordArray@Arrays@ogl@cv@@QEAAXXZ
?resetTrace@instr@cv@@YAXXZ
?resetVertexArray@Arrays@ogl@cv@@QEAAXXZ
?reshape@GpuMat@cuda@cv@@QEBA?AV123@HH@Z
?reshape@HostMem@cuda@cv@@QEBA?AV123@HH@Z
?reshape@Mat@cv@@QEBA?AV12@HAEBV?$vector@HV?$allocator@H@std@@@std@@@Z
?reshape@Mat@cv@@QEBA?AV12@HH@Z
?reshape@Mat@cv@@QEBA?AV12@HHPEBH@Z
?reshape@UMat@cv@@QEBA?AV12@HH@Z
?reshape@UMat@cv@@QEBA?AV12@HHPEBH@Z
?resize@Mat@cv@@QEAAX_K@Z
?resize@Mat@cv@@QEAAX_KAEBV?$Scalar_@N@2@@Z
?resizeHashTab@SparseMat@cv@@QEAAX_K@Z
?roi@MatOp@cv@@UEBAXAEBVMatExpr@2@AEBVRange@2@1AEAV32@@Z
?root@FileStorage@cv@@QEBA?AVFileNode@2@H@Z
?rotate@cv@@YAXAEBV_InputArray@1@AEBV_OutputArray@1@H@Z
?row@GpuMat@cuda@cv@@QEBA?AV123@H@Z
?row@Mat@cv@@QEBA?AV12@H@Z
?row@MatExpr@cv@@QEBA?AV12@H@Z
?row@UMat@cv@@QEBA?AV12@H@Z
?rowRange@GpuMat@cuda@cv@@QEBA?AV123@HH@Z
?rowRange@GpuMat@cuda@cv@@QEBA?AV123@VRange@3@@Z
?rowRange@Mat@cv@@QEBA?AV12@AEBVRange@2@@Z
?rowRange@Mat@cv@@QEBA?AV12@HH@Z
?rowRange@UMat@cv@@QEBA?AV12@AEBVRange@2@@Z
?rowRange@UMat@cv@@QEBA?AV12@HH@Z
?rows@Buffer@ogl@cv@@QEBAHXZ
?rows@Texture2D@ogl@cv@@QEBAHXZ
?rows@_InputArray@cv@@QEBAHH@Z
?run@Kernel@ocl@cv@@QEAA_NHQEA_K0_NAEBVQueue@23@@Z
?runProfiling@Kernel@ocl@cv@@QEAA_JHQEA_K0AEBVQueue@23@@Z
?runTask@Kernel@ocl@cv@@QEAA_N_NAEBVQueue@23@@Z
?sameSize@_InputArray@cv@@QEBA_NAEBV12@@Z
?save@Algorithm@cv@@UEBAXAEBV?$basic_string@DU?$char_traits@D@std@@V?$allocator@D@2@@std@@@Z
?save@LDA@cv@@QEBAXAEAVFileStorage@2@@Z
?save@LDA@cv@@QEBAXAEBV?$basic_string@DU?$char_traits@D@std@@V?$allocator@D@2@@std@@@Z
?scalarToRawData@cv@@YAXAEBV?$Scalar_@N@1@PEAXHH@Z
?scaleAdd@cv@@YAXAEBV_InputArray@1@N0AEBV_OutputArray@1@@Z
?seed@RNG_MT19937@cv@@QEAAXI@Z
?seek@MatConstIterator@cv@@QEAAXPEBH_N@Z
?seek@MatConstIterator@cv@@QEAAX_J_N@Z
?seekEnd@SparseMatConstIterator@cv@@QEAAXXZ
?seqInsertSlice@cv@@YAXPEAUCvSeq@@HPEBX@Z
?seqPop@cv@@YAXPEAUCvSeq@@PEAX@Z
?seqPopFront@cv@@YAXPEAUCvSeq@@PEAX@Z
?seqPush@cv@@YAPEACPEAUCvSeq@@PEBX@Z
?seqPushFront@cv@@YAPEACPEAUCvSeq@@PEBX@Z
?seqRemove@cv@@YAXPEAUCvSeq@@H@Z
?seqRemoveSlice@cv@@YAXPEAUCvSeq@@UCvSlice@@@Z
?set@Device@ocl@cv@@QEAAXPEAX@Z
?set@Kernel@ocl@cv@@QEAAHHAEBVImage2D@23@@Z
?set@Kernel@ocl@cv@@QEAAHHAEBVKernelArg@23@@Z
?set@Kernel@ocl@cv@@QEAAHHAEBVUMat@3@@Z
?set@Kernel@ocl@cv@@QEAAHHPEBX_K@Z
?setAutoRelease@Arrays@ogl@cv@@QEAAX_N@Z
?setAutoRelease@Buffer@ogl@cv@@QEAAX_N@Z
?setAutoRelease@Texture2D@ogl@cv@@QEAAX_N@Z
?setBreakOnError@cv@@YA_N_N@Z
?setBufferPoolConfig@cuda@cv@@YAXH_KH@Z
?setBufferPoolUsage@cuda@cv@@YAX_N@Z
?setColorArray@Arrays@ogl@cv@@QEAAXAEBV_InputArray@3@@Z
?setDefaultAllocator@GpuMat@cuda@cv@@SAXPEAVAllocator@123@@Z
?setDefaultAllocator@Mat@cv@@SAXPEAVMatAllocator@2@@Z
?setDevice@cuda@cv@@YAXH@Z
?setException@AsyncPromise@cv@@QEAAXAEBVException@2@@Z
?setException@AsyncPromise@cv@@QEAAXVexception_ptr@std@@@Z
?setExp@softdouble@cv@@QEBA?AU12@H@Z
?setExp@softfloat@cv@@QEBA?AU12@H@Z
?setFlags@instr@cv@@YAXW4FLAGS@12@@Z
?setFrac@softdouble@cv@@QEBA?AU12@AEBU12@@Z
?setFrac@softfloat@cv@@QEBA?AU12@AEBU12@@Z
?setGlDevice@cuda@cv@@YAXH@Z
?setIdentity@cv@@YAXAEBV_InputOutputArray@1@AEBV?$Scalar_@N@1@@Z
?setIppStatus@ipp@cv@@YAXHQEBD0H@Z
?setLogLevel@logging@utils@cv@@YA?AW4LogLevel@123@W44123@@Z
?setLogTagLevel@logging@utils@cv@@YAXPEBDW4LogLevel@123@@Z
?setNormalArray@Arrays@ogl@cv@@QEAAXAEBV_InputArray@3@@Z
?setNumThreads@cv@@YAXH@Z
?setRNGSeed@cv@@YAXH@Z
?setSign@softdouble@cv@@QEBA?AU12@_N@Z
?setSign@softfloat@cv@@QEBA?AU12@_N@Z
?setTexCoordArray@Arrays@ogl@cv@@QEAAXAEBV_InputArray@3@@Z
?setTo@GpuMat@cuda@cv@@QEAAAEAV123@V?$Scalar_@N@3@@Z
?setTo@GpuMat@cuda@cv@@QEAAAEAV123@V?$Scalar_@N@3@AEAVStream@23@@Z
?setTo@GpuMat@cuda@cv@@QEAAAEAV123@V?$Scalar_@N@3@AEBV_InputArray@3@@Z
?setTo@GpuMat@cuda@cv@@QEAAAEAV123@V?$Scalar_@N@3@AEBV_InputArray@3@AEAVStream@23@@Z
?setTo@Mat@cv@@QEAAAEAV12@AEBV_InputArray@2@0@Z
?setTo@UMat@cv@@QEAAAEAV12@AEBV_InputArray@2@0@Z
?setTo@_OutputArray@cv@@QEBAXAEBV_InputArray@2@0@Z
?setUseIPP@ipp@cv@@YAX_N@Z
?setUseIPP_NotExact@ipp@cv@@YAX_N@Z
?setUseInstrumentation@instr@cv@@YAX_N@Z
?setUseOpenCL@ocl@cv@@YAX_N@Z
?setUseOpenVX@cv@@YAX_N@Z
?setUseOptimized@cv@@YAX_N@Z
?setUseSVM@Context@ocl@cv@@QEAAX_N@Z
?setValue@AsyncPromise@cv@@QEAAXAEBV_InputArray@2@@Z
?setValue@FileNode@cv@@QEAAXHPEBXH@Z
?setVertexArray@Arrays@ogl@cv@@QEAAXAEBV_InputArray@3@@Z
?sharedMemPerBlock@DeviceInfo@cuda@cv@@QEBA_KXZ
?sin@cv@@YA?AUsoftdouble@1@AEBU21@@Z
?singleFPConfig@Device@ocl@cv@@QEBAHXZ
?size@Arrays@ogl@cv@@QEBAHXZ
?size@Buffer@ogl@cv@@QEBA?AV?$Size_@H@3@XZ
?size@FileNode@cv@@QEBA_KXZ
?size@GpuMat@cuda@cv@@QEBA?AV?$Size_@H@3@XZ
?size@HostMem@cuda@cv@@QEBA?AV?$Size_@H@3@XZ
?size@MatExpr@cv@@QEBA?AV?$Size_@H@2@XZ
?size@MatOp@cv@@UEBA?AV?$Size_@H@2@AEBVMatExpr@2@@Z
?size@Range@cv@@QEBAHXZ
?size@SparseMat@cv@@QEBAHH@Z
?size@SparseMat@cv@@QEBAPEBHXZ
?size@Texture2D@ogl@cv@@QEBA?AV?$Size_@H@3@XZ
?size@_InputArray@cv@@QEBA?AV?$Size_@H@2@H@Z
?sizend@_InputArray@cv@@QEBAHPEAHH@Z
?solve@cv@@YA_NAEBV_InputArray@1@0AEBV_OutputArray@1@H@Z
?solveCubic@cv@@YAHAEBV_InputArray@1@AEBV_OutputArray@1@@Z
?solveLP@cv@@YAHAEBV_InputArray@1@0AEBV_OutputArray@1@@Z
?solvePoly@cv@@YANAEBV_InputArray@1@AEBV_OutputArray@1@H@Z
?solveZ@SVD@cv@@SAXAEBV_InputArray@2@AEBV_OutputArray@2@@Z
?sort@cv@@YAXAEBV_InputArray@1@AEBV_OutputArray@1@H@Z
?sortIdx@cv@@YAXAEBV_InputArray@1@AEBV_OutputArray@1@H@Z
?source@Program@ocl@cv@@QEBAAEBVProgramSource@23@XZ
?source@ProgramSource@ocl@cv@@QEBAAEBV?$basic_string@DU?$char_traits@D@std@@V?$allocator@D@2@@std@@XZ
?split16u@hal@cv@@YAXPEBGPEAPEAGHH@Z
?split32s@hal@cv@@YAXPEBHPEAPEAHHH@Z
?split64s@hal@cv@@YAXPEB_JPEAPEA_JHH@Z
?split8u@hal@cv@@YAXPEBEPEAPEAEHH@Z
?split@cv@@YAXAEBVMat@1@PEAV21@@Z
?split@cv@@YAXAEBV_InputArray@1@AEBV_OutputArray@1@@Z
?sqrt32f@hal@cv@@YAXPEBMPEAMH@Z
?sqrt64f@hal@cv@@YAXPEBNPEANH@Z
?sqrt@cv@@YA?AUsoftdouble@1@AEBU21@@Z
?sqrt@cv@@YA?AUsoftfloat@1@AEBU21@@Z
?sqrt@cv@@YAXAEBV_InputArray@1@AEBV_OutputArray@1@@Z
?sqrt@hal@cv@@YAXPEBMPEAMH@Z
?sqrt@hal@cv@@YAXPEBNPEANH@Z
?start@TickMeter@cv@@QEAAXXZ
?start@Timer@ocl@cv@@QEAAXXZ
?startWriteStruct@FileStorage@cv@@QEAAXAEBV?$basic_string@DU?$char_traits@D@std@@V?$allocator@D@2@@std@@H0@Z
?step1@GpuMat@cuda@cv@@QEBA_KXZ
?step1@HostMem@cuda@cv@@QEBA_KXZ
?step1@Mat@cv@@QEBA_KH@Z
?step1@UMat@cv@@QEBA_KH@Z
?step@_InputArray@cv@@QEBA_KH@Z
?stop@TickMeter@cv@@QEAAXXZ
?stop@Timer@ocl@cv@@QEAAXXZ
?string@FileNode@cv@@QEBA?AV?$basic_string@DU?$char_traits@D@std@@V?$allocator@D@2@@std@@XZ
?sub16s@hal@cv@@YAXPEBF_K01PEAF1HHPEAX@Z
?sub16u@hal@cv@@YAXPEBG_K01PEAG1HHPEAX@Z
?sub32f@hal@cv@@YAXPEBM_K01PEAM1HHPEAX@Z
?sub32s@hal@cv@@YAXPEBH_K01PEAH1HHPEAX@Z
?sub64f@hal@cv@@YAXPEBN_K01PEAN1HHPEAX@Z
?sub8s@hal@cv@@YAXPEBC_K01PEAC1HHPEAX@Z
?sub8u@hal@cv@@YAXPEBE_K01PEAE1HHPEAX@Z
?subspaceProject@LDA@cv@@SA?AVMat@2@AEBV_InputArray@2@00@Z
?subspaceReconstruct@LDA@cv@@SA?AVMat@2@AEBV_InputArray@2@00@Z
?subtract@MatOp@cv@@UEBAXAEBV?$Scalar_@N@2@AEBVMatExpr@2@AEAV42@@Z
?subtract@MatOp@cv@@UEBAXAEBVMatExpr@2@0AEAV32@@Z
?subtract@cv@@YAXAEBV_InputArray@1@0AEBV_OutputArray@1@0H@Z
?sum@cv@@YA?AV?$Scalar_@N@1@AEBV_InputArray@1@@Z
?supports@DeviceInfo@cuda@cv@@QEBA_NW4FeatureSet@23@@Z
?surfaceAlignment@DeviceInfo@cuda@cv@@QEBA_KXZ
?swap@GpuMat@cuda@cv@@QEAAXAEAV123@@Z
?swap@HostMem@cuda@cv@@QEAAXAEAV123@@Z
?swap@cv@@YAXAEAVMat@1@0@Z
?swap@cv@@YAXAEAVUMat@1@0@Z
?syncOutput@cuda@cv@@YAXAEBVGpuMat@12@AEBV_OutputArray@2@AEAVStream@12@@Z
?t@Mat@cv@@QEBA?AVMatExpr@2@XZ
?t@MatExpr@cv@@QEBA?AV12@XZ
?t@UMat@cv@@QEBA?AV12@XZ
?tccDriver@DeviceInfo@cuda@cv@@QEBA_NXZ
?tempCopiedUMat@UMatData@cv@@QEBA_NXZ
?tempUMat@UMatData@cv@@QEBA_NXZ
?tempfile@cv@@YA?AV?$basic_string@DU?$char_traits@D@std@@V?$allocator@D@2@@std@@PEBD@Z
?texId@Texture2D@ogl@cv@@QEBAIXZ
?textureAlignment@DeviceInfo@cuda@cv@@QEBA_KXZ
?texturePitchAlignment@DeviceInfo@cuda@cv@@QEBA_KXZ
?theRNG@cv@@YAAEAVRNG@1@XZ
?this_type_does_not_support_comparisons@Stream@cuda@cv@@AEBAXXZ
?total@Mat@cv@@QEBA_KHH@Z
?total@Mat@cv@@QEBA_KXZ
?total@UMat@cv@@QEBA_KXZ
?total@_InputArray@cv@@QEBA_KH@Z
?totalConstMem@DeviceInfo@cuda@cv@@QEBA_KXZ
?totalGlobalMem@DeviceInfo@cuda@cv@@QEBA_KXZ
?totalMemory@DeviceInfo@cuda@cv@@QEBA_KXZ
?trace@cv@@YA?AV?$Scalar_@N@1@AEBV_InputArray@1@@Z
?traceArg@details@trace@utils@cv@@YAXAEBUTraceArg@1234@H@Z
?traceArg@details@trace@utils@cv@@YAXAEBUTraceArg@1234@N@Z
?traceArg@details@trace@utils@cv@@YAXAEBUTraceArg@1234@PEBD@Z
?traceArg@details@trace@utils@cv@@YAXAEBUTraceArg@1234@_J@Z
?transform@cv@@YAXAEBV_InputArray@1@AEBV_OutputArray@1@0@Z
?transpose@MatOp@cv@@UEBAXAEBVMatExpr@2@AEAV32@@Z
?transpose@cv@@YAXAEBV_InputArray@1@AEBV_OutputArray@1@@Z
?type@Buffer@ogl@cv@@QEBAHXZ
?type@Device@ocl@cv@@QEBAHXZ
?type@FileNode@cv@@QEBAHXZ
?type@GpuMat@cuda@cv@@QEBAHXZ
?type@HostMem@cuda@cv@@QEBAHXZ
?type@Mat@cv@@QEBAHXZ
?type@MatExpr@cv@@QEBAHXZ
?type@MatOp@cv@@UEBAHAEBVMatExpr@2@@Z
?type@SparseMat@cv@@QEBAHXZ
?type@UMat@cv@@QEBAHXZ
?type@_InputArray@cv@@QEBAHH@Z
?typeToStr@ocl@cv@@YAPEBDH@Z
?typeToString@cv@@YA?BV?$basic_string@DU?$char_traits@D@std@@V?$allocator@D@2@@std@@H@Z
?typeToString_@detail@cv@@YA?BV?$basic_string@DU?$char_traits@D@std@@V?$allocator@D@2@@std@@H@Z
?unbind@Buffer@ogl@cv@@SAXW4Target@123@@Z
?unifiedAddressing@DeviceInfo@cuda@cv@@QEBA_NXZ
?uniform@RNG@cv@@QEAAHHH@Z
?uniform@RNG@cv@@QEAAMMM@Z
?uniform@RNG@cv@@QEAANNN@Z
?uniform@RNG_MT19937@cv@@QEAAHHH@Z
?uniform@RNG_MT19937@cv@@QEAAMMM@Z
?uniform@RNG_MT19937@cv@@QEAANNN@Z
?unloadProg@Context@ocl@cv@@QEAAXAEAVProgram@23@@Z
?unlock@FileLock@fs@utils@cv@@QEAAXXZ
?unlock@UMatData@cv@@QEAAXXZ
?unlock_shared@FileLock@fs@utils@cv@@QEAAXXZ
?unmap@MatAllocator@cv@@UEBAXPEAUUMatData@2@@Z
?unmapDevice@Buffer@ogl@cv@@QEAAXAEAVStream@cuda@3@@Z
?unmapDevice@Buffer@ogl@cv@@QEAAXXZ
?unmapGLBuffer@ogl@cv@@YAXAEAVUMat@2@@Z
?unmapHost@Buffer@ogl@cv@@QEAAXXZ
?unregisterPageLocked@cuda@cv@@YAXAEAVMat@2@@Z
?updateContinuityFlag@GpuMat@cuda@cv@@QEAAXXZ
?updateContinuityFlag@Mat@cv@@QEAAXXZ
?updateContinuityFlag@UMat@cv@@QEAAXXZ
?upload@GpuMat@cuda@cv@@QEAAXAEBV_InputArray@3@@Z
?upload@GpuMat@cuda@cv@@QEAAXAEBV_InputArray@3@AEAVStream@23@@Z
?upload@MatAllocator@cv@@UEBAXPEAUUMatData@2@PEBXHQEB_K222@Z
?useIPP@ipp@cv@@YA_NXZ
?useIPP_NotExact@ipp@cv@@YA_NXZ
?useInstrumentation@instr@cv@@YA_NXZ
?useOpenCL@ocl@cv@@YA_NXZ
?useOpenVX@cv@@YA_NXZ
?useOptimized@cv@@YA_NXZ
?useSVM@Context@ocl@cv@@QEBA_NXZ
?valid@AsyncArray@cv@@QEBA_NXZ
?vconcat@cv@@YAXAEBV_InputArray@1@0AEBV_OutputArray@1@@Z
?vconcat@cv@@YAXAEBV_InputArray@1@AEBV_OutputArray@1@@Z
?vconcat@cv@@YAXPEBVMat@1@_KAEBV_OutputArray@1@@Z
?vecopTypeToStr@ocl@cv@@YAPEBDH@Z
?vendor@PlatformInfo@ocl@cv@@QEBA?AV?$basic_string@DU?$char_traits@D@std@@V?$allocator@D@2@@std@@XZ
?vendorID@Device@ocl@cv@@QEBAHXZ
?vendorName@Device@ocl@cv@@QEBA?AV?$basic_string@DU?$char_traits@D@std@@V?$allocator@D@2@@std@@XZ
?version@Device@ocl@cv@@QEBA?AV?$basic_string@DU?$char_traits@D@std@@V?$allocator@D@2@@std@@XZ
?version@PlatformInfo@ocl@cv@@QEBA?AV?$basic_string@DU?$char_traits@D@std@@V?$allocator@D@2@@std@@XZ
?waitEvent@Stream@cuda@cv@@QEAAXAEBVEvent@23@@Z
?waitForCompletion@Event@cuda@cv@@QEAAXXZ
?waitForCompletion@Stream@cuda@cv@@QEAAXXZ
?wait_for@AsyncArray@cv@@QEBA_NN@Z
?wait_for@AsyncArray@cv@@QEBA_N_J@Z
?warpSize@DeviceInfo@cuda@cv@@QEBAHXZ
?what@Exception@cv@@UEBAPEBDXZ
?workGroupSize@Kernel@ocl@cv@@QEBA_KXZ
?write@Algorithm@cv@@QEBAXAEBU?$Ptr@VFileStorage@cv@@@2@AEBV?$basic_string@DU?$char_traits@D@std@@V?$allocator@D@2@@std@@@Z
?write@Algorithm@cv@@UEBAXAEAVFileStorage@2@@Z
?write@FileStorage@cv@@QEAAXAEBV?$basic_string@DU?$char_traits@D@std@@V?$allocator@D@2@@std@@0@Z
?write@FileStorage@cv@@QEAAXAEBV?$basic_string@DU?$char_traits@D@std@@V?$allocator@D@2@@std@@AEBV?$vector@V?$basic_string@DU?$char_traits@D@std@@V?$allocator@D@2@@std@@V?$allocator@V?$basic_string@DU?$char_traits@D@std@@V?$allocator@D@2@@std@@@2@@4@@Z
?write@FileStorage@cv@@QEAAXAEBV?$basic_string@DU?$char_traits@D@std@@V?$allocator@D@2@@std@@AEBVMat@2@@Z
?write@FileStorage@cv@@QEAAXAEBV?$basic_string@DU?$char_traits@D@std@@V?$allocator@D@2@@std@@H@Z
?write@FileStorage@cv@@QEAAXAEBV?$basic_string@DU?$char_traits@D@std@@V?$allocator@D@2@@std@@N@Z
?write@PCA@cv@@QEBAXAEAVFileStorage@2@@Z
?write@Program@ocl@cv@@QEBA_NAEAV?$basic_string@DU?$char_traits@D@std@@V?$allocator@D@2@@std@@@Z
?write@cv@@YAXAEAVFileStorage@1@AEBV?$basic_string@DU?$char_traits@D@std@@V?$allocator@D@2@@std@@1@Z
?write@cv@@YAXAEAVFileStorage@1@AEBV?$basic_string@DU?$char_traits@D@std@@V?$allocator@D@2@@std@@AEBV?$vector@VDMatch@cv@@V?$allocator@VDMatch@cv@@@std@@@4@@Z
?write@cv@@YAXAEAVFileStorage@1@AEBV?$basic_string@DU?$char_traits@D@std@@V?$allocator@D@2@@std@@AEBV?$vector@VKeyPoint@cv@@V?$allocator@VKeyPoint@cv@@@std@@@4@@Z
?write@cv@@YAXAEAVFileStorage@1@AEBV?$basic_string@DU?$char_traits@D@std@@V?$allocator@D@2@@std@@AEBVMat@1@@Z
?write@cv@@YAXAEAVFileStorage@1@AEBV?$basic_string@DU?$char_traits@D@std@@V?$allocator@D@2@@std@@AEBVSparseMat@1@@Z
?write@cv@@YAXAEAVFileStorage@1@AEBV?$basic_string@DU?$char_traits@D@std@@V?$allocator@D@2@@std@@H@Z
?write@cv@@YAXAEAVFileStorage@1@AEBV?$basic_string@DU?$char_traits@D@std@@V?$allocator@D@2@@std@@M@Z
?write@cv@@YAXAEAVFileStorage@1@AEBV?$basic_string@DU?$char_traits@D@std@@V?$allocator@D@2@@std@@N@Z
?writeComment@FileStorage@cv@@QEAAXAEBV?$basic_string@DU?$char_traits@D@std@@V?$allocator@D@2@@std@@_N@Z
?writeFormat@Algorithm@cv@@IEBAXAEAVFileStorage@2@@Z
?writeLogMessage@internal@logging@utils@cv@@YAXW4LogLevel@234@PEBD@Z
?writeLogMessageEx@internal@logging@utils@cv@@YAXW4LogLevel@234@PEBD1H11@Z
?writeRaw@FileStorage@cv@@QEAAXAEBV?$basic_string@DU?$char_traits@D@std@@V?$allocator@D@2@@std@@PEBX_K@Z
?writeScalar@cv@@YAXAEAVFileStorage@1@AEBV?$basic_string@DU?$char_traits@D@std@@V?$allocator@D@2@@std@@@Z
?writeScalar@cv@@YAXAEAVFileStorage@1@H@Z
?writeScalar@cv@@YAXAEAVFileStorage@1@M@Z
?writeScalar@cv@@YAXAEAVFileStorage@1@N@Z
?xor8u@hal@cv@@YAXPEBE_K01PEAE1HHPEAX@Z
?zero@softdouble@cv@@SA?AU12@XZ
?zero@softfloat@cv@@SA?AU12@XZ
?zeros@Mat@cv@@SA?AVMatExpr@2@HHH@Z
?zeros@Mat@cv@@SA?AVMatExpr@2@HPEBHH@Z
?zeros@Mat@cv@@SA?AVMatExpr@2@V?$Size_@H@2@H@Z
?zeros@UMat@cv@@SA?AV12@HHH@Z
?zeros@UMat@cv@@SA?AV12@HPEBHH@Z
?zeros@UMat@cv@@SA?AV12@V?$Size_@H@2@H@Z
cvAbsDiff
cvAbsDiffS
cvAdd
cvAddS
cvAddWeighted
cvAlloc
cvAnd
cvAndS
cvAvg
cvAvgSdv
cvBackProjectPCA
cvCalcCovarMatrix
cvCalcPCA
cvCartToPolar
cvCbrt
cvChangeSeqBlock
cvCheckArr
cvCheckHardwareSupport
cvCheckTermCriteria
cvClearGraph
cvClearMemStorage
cvClearND
cvClearSeq
cvClearSet
cvClone
cvCloneGraph
cvCloneImage
cvCloneMat
cvCloneMatND
cvCloneSparseMat
cvCmp
cvCmpS
cvCompleteSymm
cvConvertScale
cvConvertScaleAbs
cvCopy
cvCountNonZero
cvCreateChildMemStorage
cvCreateData
cvCreateGraph
cvCreateGraphScanner
cvCreateImage
cvCreateImageHeader
cvCreateMat
cvCreateMatHeader
cvCreateMatND
cvCreateMatNDHeader
cvCreateMemStorage
cvCreateSeq
cvCreateSeqBlock
cvCreateSet
cvCreateSparseMat
cvCrossProduct
cvCvtSeqToArray
cvDCT
cvDFT
cvDet
cvDiv
cvDotProduct
cvEigenVV
cvEndWriteSeq
cvError
cvErrorFromIppStatus
cvErrorStr
cvExp
cvFastArctan
cvFindGraphEdge
cvFindGraphEdgeByPtr
cvFlip
cvFlushSeqWriter
cvFree_
cvGEMM
cvGet1D
cvGet2D
cvGet3D
cvGetCols
cvGetDiag
cvGetDimSize
cvGetDims
cvGetElemType
cvGetErrInfo
cvGetErrMode
cvGetErrStatus
cvGetImage
cvGetImageCOI
cvGetImageROI
cvGetMat
cvGetND
cvGetNumThreads
cvGetOptimalDFTSize
cvGetRawData
cvGetReal1D
cvGetReal2D
cvGetReal3D
cvGetRealND
cvGetRows
cvGetSeqElem
cvGetSeqReaderPos
cvGetSize
cvGetSubRect
cvGetThreadNum
cvGetTickCount
cvGetTickFrequency
cvGraphAddEdge
cvGraphAddEdgeByPtr
cvGraphAddVtx
cvGraphRemoveEdge
cvGraphRemoveEdgeByPtr
cvGraphRemoveVtx
cvGraphRemoveVtxByPtr
cvGraphVtxDegree
cvGraphVtxDegreeByPtr
cvGuiBoxReport
cvInRange
cvInRangeS
cvInitImageHeader
cvInitMatHeader
cvInitMatNDHeader
cvInitNArrayIterator
cvInitSparseMatIterator
cvInitTreeNodeIterator
cvInsertNodeIntoTree
cvInvert
cvKMeans2
cvLUT
cvLog
cvMahalanobis
cvMakeSeqHeaderForArray
cvMax
cvMaxS
cvMemStorageAlloc
cvMerge
cvMin
cvMinMaxLoc
cvMinS
cvMixChannels
cvMul
cvMulSpectrums
cvMulTransposed
cvNextGraphItem
cvNextNArraySlice
cvNextTreeNode
cvNorm
cvNormalize
cvNot
cvNulDevReport
cvOr
cvOrS
cvPerspectiveTransform
cvPolarToCart
cvPow
cvPrevTreeNode
cvProjectPCA
cvPtr1D
cvPtr2D
cvPtr3D
cvPtrND
cvRandArr
cvRandShuffle
cvRange
cvRawDataToScalar
cvRedirectError
cvReduce
cvRelease
cvReleaseData
cvReleaseGraphScanner
cvReleaseImage
cvReleaseImageHeader
cvReleaseMat
cvReleaseMemStorage
cvReleaseSparseMat
cvRemoveNodeFromTree
cvRepeat
cvResetImageROI
cvReshape
cvReshapeMatND
cvRestoreMemStoragePos
cvSVBkSb
cvSVD
cvSaveMemStoragePos
cvScalarToRawData
cvScaleAdd
cvSeqElemIdx
cvSeqInsert
cvSeqInsertSlice
cvSeqInvert
cvSeqPartition
cvSeqPop
cvSeqPopFront
cvSeqPopMulti
cvSeqPush
cvSeqPushFront
cvSeqPushMulti
cvSeqRemove
cvSeqRemoveSlice
cvSeqSearch
cvSeqSlice
cvSeqSort
cvSet
cvSet1D
cvSet2D
cvSet3D
cvSetAdd
cvSetData
cvSetErrMode
cvSetErrStatus
cvSetIPLAllocators
cvSetIdentity
cvSetImageCOI
cvSetImageROI
cvSetND
cvSetNumThreads
cvSetReal1D
cvSetReal2D
cvSetReal3D
cvSetRealND
cvSetRemove
cvSetSeqBlockSize
cvSetSeqReaderPos
cvSetZero
cvSliceLength
cvSolve
cvSolveCubic
cvSolvePoly
cvSort
cvSplit
cvStartAppendToSeq
cvStartReadSeq
cvStartWriteSeq
cvStdErrReport
cvSub
cvSubRS
cvSum
cvTrace
cvTransform
cvTranspose
cvTreeToNodeSeq
cvUseOptimized
cvXor
cvXorS
