LIBRARY "opencv_imgproc412.dll"
EXPORTS
??0Algorithm@cv@@QEAA@AEBV01@@Z
??0CLAHE@cv@@QEAA@$$QEAV01@@Z
??0CLAHE@cv@@QEAA@AEBV01@@Z
??0CLAHE@cv@@QEAA@XZ
??0ConjGradSolver@cv@@QEAA@$$QEAV01@@Z
??0ConjGradSolver@cv@@QEAA@AEBV01@@Z
??0ConjGradSolver@cv@@QEAA@XZ
??0DCT2D@hal@cv@@QEAA@AEBU012@@Z
??0DCT2D@hal@cv@@QEAA@XZ
??0DFT1D@hal@cv@@QEAA@AEBU012@@Z
??0DFT1D@hal@cv@@QEAA@XZ
??0DFT2D@hal@cv@@QEAA@AEBU012@@Z
??0DFT2D@hal@cv@@QEAA@XZ
??0DMatch@cv@@QEAA@HHHM@Z
??0DMatch@cv@@QEAA@HHM@Z
??0DMatch@cv@@QEAA@XZ
??0DownhillSolver@cv@@QEAA@$$QEAV01@@Z
??0DownhillSolver@cv@@QEAA@AEBV01@@Z
??0DownhillSolver@cv@@QEAA@XZ
??0Exception@cv@@QEAA@AEBV01@@Z
??0FileStorage@cv@@QEAA@AEBV01@@Z
??0Filter2D@hal@cv@@QEAA@AEBU012@@Z
??0Filter2D@hal@cv@@QEAA@XZ
??0Formatted@cv@@QEAA@AEBV01@@Z
??0Formatted@cv@@QEAA@XZ
??0Formatter@cv@@QEAA@AEBV01@@Z
??0Formatter@cv@@QEAA@XZ
??0Function@MinProblemSolver@cv@@QEAA@AEBV012@@Z
??0Function@MinProblemSolver@cv@@QEAA@XZ
??0GeneralizedHough@cv@@QEAA@$$QEAV01@@Z
??0GeneralizedHough@cv@@QEAA@AEBV01@@Z
??0GeneralizedHough@cv@@QEAA@XZ
??0GeneralizedHoughBallard@cv@@QEAA@$$QEAV01@@Z
??0GeneralizedHoughBallard@cv@@QEAA@AEBV01@@Z
??0GeneralizedHoughBallard@cv@@QEAA@XZ
??0GeneralizedHoughGuil@cv@@QEAA@$$QEAV01@@Z
??0GeneralizedHoughGuil@cv@@QEAA@AEBV01@@Z
??0GeneralizedHoughGuil@cv@@QEAA@XZ
??0Hdr@SparseMat@cv@@QEAA@$$QEAU012@@Z
??0Hdr@SparseMat@cv@@QEAA@AEBU012@@Z
??0KeyPoint@cv@@QEAA@$$QEAV01@@Z
??0KeyPoint@cv@@QEAA@AEBV01@@Z
??0KeyPoint@cv@@QEAA@MMMMMHH@Z
??0KeyPoint@cv@@QEAA@V?$Point_@M@1@MMMHH@Z
??0KeyPoint@cv@@QEAA@XZ
??0LDA@cv@@QEAA@AEBV01@@Z
??0LineIterator@cv@@QEAA@AEBVMat@1@V?$Point_@H@1@1H_N@Z
??0LineSegmentDetector@cv@@QEAA@AEBV01@@Z
??0LineSegmentDetector@cv@@QEAA@XZ
??0Mat@cv@@QEAA@$$QEAV01@@Z
??0Mat@cv@@QEAA@AEBV01@@Z
??0Mat@cv@@QEAA@AEBV?$vector@HV?$allocator@H@std@@@std@@H@Z
??0Mat@cv@@QEAA@AEBV?$vector@HV?$allocator@H@std@@@std@@HAEBV?$Scalar_@N@1@@Z
??0Mat@cv@@QEAA@HHH@Z
??0Mat@cv@@QEAA@HHHAEBV?$Scalar_@N@1@@Z
??0Mat@cv@@QEAA@HHHPEAX_K@Z
??0Mat@cv@@QEAA@HPEBHH@Z
??0Mat@cv@@QEAA@HPEBHHAEBV?$Scalar_@N@1@@Z
??0Mat@cv@@QEAA@V?$Size_@H@1@H@Z
??0Mat@cv@@QEAA@V?$Size_@H@1@HAEBV?$Scalar_@N@1@@Z
??0Mat@cv@@QEAA@V?$Size_@H@1@HPEAX_K@Z
??0Mat@cv@@QEAA@XZ
??0MatAllocator@cv@@QEAA@AEBV01@@Z
??0MatAllocator@cv@@QEAA@XZ
??0MatConstIterator@cv@@QEAA@AEBV01@@Z
??0MatConstIterator@cv@@QEAA@PEBVMat@1@@Z
??0MatConstIterator@cv@@QEAA@PEBVMat@1@HH@Z
??0MatConstIterator@cv@@QEAA@PEBVMat@1@V?$Point_@H@1@@Z
??0MatConstIterator@cv@@QEAA@XZ
??0MatExpr@cv@@QEAA@$$QEAV01@@Z
??0MatExpr@cv@@QEAA@AEBV01@@Z
??0MatExpr@cv@@QEAA@PEBVMatOp@1@HAEBVMat@1@11NNAEBV?$Scalar_@N@1@@Z
??0MatExpr@cv@@QEAA@XZ
??0MatOp@cv@@QEAA@AEBV01@@Z
??0MatSize@cv@@QEAA@PEAH@Z
??0MatStep@cv@@QEAA@XZ
??0MatStep@cv@@QEAA@_K@Z
??0Matx_AddOp@cv@@QEAA@AEBU01@@Z
??0Matx_AddOp@cv@@QEAA@XZ
??0Matx_DivOp@cv@@QEAA@AEBU01@@Z
??0Matx_DivOp@cv@@QEAA@XZ
??0Matx_MatMulOp@cv@@QEAA@AEBU01@@Z
??0Matx_MatMulOp@cv@@QEAA@XZ
??0Matx_MulOp@cv@@QEAA@AEBU01@@Z
??0Matx_MulOp@cv@@QEAA@XZ
??0Matx_ScaleOp@cv@@QEAA@AEBU01@@Z
??0Matx_ScaleOp@cv@@QEAA@XZ
??0Matx_SubOp@cv@@QEAA@AEBU01@@Z
??0Matx_SubOp@cv@@QEAA@XZ
??0Matx_TOp@cv@@QEAA@AEBU01@@Z
??0Matx_TOp@cv@@QEAA@XZ
??0MinProblemSolver@cv@@QEAA@$$QEAV01@@Z
??0MinProblemSolver@cv@@QEAA@AEBV01@@Z
??0MinProblemSolver@cv@@QEAA@XZ
??0Moments@cv@@QEAA@NNNNNNNNNN@Z
??0Moments@cv@@QEAA@XZ
??0Morph@hal@cv@@QEAA@AEBU012@@Z
??0Morph@hal@cv@@QEAA@XZ
??0PCA@cv@@QEAA@$$QEAV01@@Z
??0PCA@cv@@QEAA@AEBV01@@Z
??0ParallelLoopBody@cv@@QEAA@AEBV01@@Z
??0ParallelLoopBody@cv@@QEAA@XZ
??0QuadEdge@Subdiv2D@cv@@QEAA@H@Z
??0QuadEdge@Subdiv2D@cv@@QEAA@XZ
??0RNG@cv@@QEAA@XZ
??0RNG@cv@@QEAA@_K@Z
??0Range@cv@@QEAA@HH@Z
??0Range@cv@@QEAA@XZ
??0RotatedRect@cv@@QEAA@$$QEAV01@@Z
??0RotatedRect@cv@@QEAA@AEBV01@@Z
??0RotatedRect@cv@@QEAA@AEBV?$Point_@M@1@AEBV?$Size_@M@1@M@Z
??0RotatedRect@cv@@QEAA@XZ
??0SVD@cv@@QEAA@$$QEAV01@@Z
??0SVD@cv@@QEAA@AEBV01@@Z
??0SVD@cv@@QEAA@AEBV_InputArray@1@H@Z
??0SVD@cv@@QEAA@XZ
??0SepFilter2D@hal@cv@@QEAA@AEBU012@@Z
??0SepFilter2D@hal@cv@@QEAA@XZ
??0SparseMat@cv@@QEAA@AEBV01@@Z
??0SparseMat@cv@@QEAA@HPEBHH@Z
??0SparseMat@cv@@QEAA@XZ
??0SparseMatConstIterator@cv@@QEAA@AEBV01@@Z
??0SparseMatConstIterator@cv@@QEAA@XZ
??0SparseMatIterator@cv@@QEAA@AEBV01@@Z
??0SparseMatIterator@cv@@QEAA@PEAVSparseMat@1@@Z
??0SparseMatIterator@cv@@QEAA@XZ
??0Subdiv2D@cv@@QEAA@$$QEAV01@@Z
??0Subdiv2D@cv@@QEAA@AEBV01@@Z
??0Subdiv2D@cv@@QEAA@V?$Rect_@H@1@@Z
??0Subdiv2D@cv@@QEAA@XZ
??0TLSDataContainer@cv@@QEAA@AEBV01@@Z
??0TermCriteria@cv@@QEAA@HHN@Z
??0TermCriteria@cv@@QEAA@XZ
??0TickMeter@cv@@QEAA@XZ
??0UMat@cv@@QEAA@$$QEAV01@@Z
??0UMat@cv@@QEAA@AEBV01@@Z
??0UMat@cv@@QEAA@HHHAEBV?$Scalar_@N@1@W4UMatUsageFlags@1@@Z
??0UMat@cv@@QEAA@HHHW4UMatUsageFlags@1@@Z
??0UMat@cv@@QEAA@HPEBHHAEBV?$Scalar_@N@1@W4UMatUsageFlags@1@@Z
??0UMat@cv@@QEAA@HPEBHHW4UMatUsageFlags@1@@Z
??0UMat@cv@@QEAA@V?$Size_@H@1@HAEBV?$Scalar_@N@1@W4UMatUsageFlags@1@@Z
??0UMat@cv@@QEAA@V?$Size_@H@1@HW4UMatUsageFlags@1@@Z
??0UMat@cv@@QEAA@W4UMatUsageFlags@1@@Z
??0Vertex@Subdiv2D@cv@@QEAA@$$QEAU012@@Z
??0Vertex@Subdiv2D@cv@@QEAA@AEBU012@@Z
??0Vertex@Subdiv2D@cv@@QEAA@V?$Point_@M@2@_NH@Z
??0Vertex@Subdiv2D@cv@@QEAA@XZ
??0_InputArray@cv@@QEAA@AEBN@Z
??0_InputArray@cv@@QEAA@AEBV01@@Z
??0_InputArray@cv@@QEAA@AEBV?$vector@VGpuMat@cuda@cv@@V?$allocator@VGpuMat@cuda@cv@@@std@@@std@@@Z
??0_InputArray@cv@@QEAA@AEBV?$vector@VMat@cv@@V?$allocator@VMat@cv@@@std@@@std@@@Z
??0_InputArray@cv@@QEAA@AEBV?$vector@VUMat@cv@@V?$allocator@VUMat@cv@@@std@@@std@@@Z
??0_InputArray@cv@@QEAA@AEBV?$vector@_NV?$allocator@_N@std@@@std@@@Z
??0_InputArray@cv@@QEAA@AEBVBuffer@ogl@1@@Z
??0_InputArray@cv@@QEAA@AEBVGpuMat@cuda@1@@Z
??0_InputArray@cv@@QEAA@AEBVHostMem@cuda@1@@Z
??0_InputArray@cv@@QEAA@AEBVMat@1@@Z
??0_InputArray@cv@@QEAA@AEBVMatExpr@1@@Z
??0_InputArray@cv@@QEAA@AEBVUMat@1@@Z
??0_InputArray@cv@@QEAA@HPEAX@Z
??0_InputArray@cv@@QEAA@XZ
??0_InputOutputArray@cv@@QEAA@$$QEAV01@@Z
??0_InputOutputArray@cv@@QEAA@AEAV?$vector@VMat@cv@@V?$allocator@VMat@cv@@@std@@@std@@@Z
??0_InputOutputArray@cv@@QEAA@AEAV?$vector@VUMat@cv@@V?$allocator@VUMat@cv@@@std@@@std@@@Z
??0_InputOutputArray@cv@@QEAA@AEAVBuffer@ogl@1@@Z
??0_InputOutputArray@cv@@QEAA@AEAVGpuMat@cuda@1@@Z
??0_InputOutputArray@cv@@QEAA@AEAVHostMem@cuda@1@@Z
??0_InputOutputArray@cv@@QEAA@AEAVMat@1@@Z
??0_InputOutputArray@cv@@QEAA@AEAVUMat@1@@Z
??0_InputOutputArray@cv@@QEAA@AEBV01@@Z
??0_InputOutputArray@cv@@QEAA@AEBV?$vector@VGpuMat@cuda@cv@@V?$allocator@VGpuMat@cuda@cv@@@std@@@std@@@Z
??0_InputOutputArray@cv@@QEAA@AEBV?$vector@VMat@cv@@V?$allocator@VMat@cv@@@std@@@std@@@Z
??0_InputOutputArray@cv@@QEAA@AEBV?$vector@VUMat@cv@@V?$allocator@VUMat@cv@@@std@@@std@@@Z
??0_InputOutputArray@cv@@QEAA@AEBVBuffer@ogl@1@@Z
??0_InputOutputArray@cv@@QEAA@AEBVGpuMat@cuda@1@@Z
??0_InputOutputArray@cv@@QEAA@AEBVHostMem@cuda@1@@Z
??0_InputOutputArray@cv@@QEAA@AEBVMat@1@@Z
??0_InputOutputArray@cv@@QEAA@AEBVUMat@1@@Z
??0_InputOutputArray@cv@@QEAA@HPEAX@Z
??0_InputOutputArray@cv@@QEAA@XZ
??0_OutputArray@cv@@QEAA@$$QEAV01@@Z
??0_OutputArray@cv@@QEAA@AEAV?$vector@VGpuMat@cuda@cv@@V?$allocator@VGpuMat@cuda@cv@@@std@@@std@@@Z
??0_OutputArray@cv@@QEAA@AEAV?$vector@VMat@cv@@V?$allocator@VMat@cv@@@std@@@std@@@Z
??0_OutputArray@cv@@QEAA@AEAV?$vector@VUMat@cv@@V?$allocator@VUMat@cv@@@std@@@std@@@Z
??0_OutputArray@cv@@QEAA@AEAVBuffer@ogl@1@@Z
??0_OutputArray@cv@@QEAA@AEAVGpuMat@cuda@1@@Z
??0_OutputArray@cv@@QEAA@AEAVHostMem@cuda@1@@Z
??0_OutputArray@cv@@QEAA@AEAVMat@1@@Z
??0_OutputArray@cv@@QEAA@AEAVUMat@1@@Z
??0_OutputArray@cv@@QEAA@AEBV01@@Z
??0_OutputArray@cv@@QEAA@AEBV?$vector@VMat@cv@@V?$allocator@VMat@cv@@@std@@@std@@@Z
??0_OutputArray@cv@@QEAA@AEBV?$vector@VUMat@cv@@V?$allocator@VUMat@cv@@@std@@@std@@@Z
??0_OutputArray@cv@@QEAA@AEBVBuffer@ogl@1@@Z
??0_OutputArray@cv@@QEAA@AEBVGpuMat@cuda@1@@Z
??0_OutputArray@cv@@QEAA@AEBVHostMem@cuda@1@@Z
??0_OutputArray@cv@@QEAA@AEBVMat@1@@Z
??0_OutputArray@cv@@QEAA@AEBVUMat@1@@Z
??0_OutputArray@cv@@QEAA@HPEAX@Z
??0_OutputArray@cv@@QEAA@XZ
??0softdouble@cv@@QEAA@AEBU01@@Z
??0softdouble@cv@@QEAA@N@Z
??0softdouble@cv@@QEAA@XZ
??0softfloat@cv@@QEAA@AEBU01@@Z
??0softfloat@cv@@QEAA@M@Z
??0softfloat@cv@@QEAA@XZ
??1CLAHE@cv@@UEAA@XZ
??1ConjGradSolver@cv@@UEAA@XZ
??1DCT2D@hal@cv@@UEAA@XZ
??1DFT1D@hal@cv@@UEAA@XZ
??1DFT2D@hal@cv@@UEAA@XZ
??1DownhillSolver@cv@@UEAA@XZ
??1Filter2D@hal@cv@@UEAA@XZ
??1Function@MinProblemSolver@cv@@UEAA@XZ
??1GeneralizedHough@cv@@UEAA@XZ
??1GeneralizedHoughBallard@cv@@UEAA@XZ
??1GeneralizedHoughGuil@cv@@UEAA@XZ
??1Hdr@SparseMat@cv@@QEAA@XZ
??1LineSegmentDetector@cv@@UEAA@XZ
??1Mat@cv@@QEAA@XZ
??1MatAllocator@cv@@UEAA@XZ
??1MatExpr@cv@@QEAA@XZ
??1MinProblemSolver@cv@@UEAA@XZ
??1Morph@hal@cv@@UEAA@XZ
??1PCA@cv@@QEAA@XZ
??1Region@details@trace@utils@cv@@QEAA@XZ
??1SVD@cv@@QEAA@XZ
??1SepFilter2D@hal@cv@@UEAA@XZ
??1SparseMat@cv@@QEAA@XZ
??1Subdiv2D@cv@@QEAA@XZ
??1_InputArray@cv@@QEAA@XZ
??1_InputOutputArray@cv@@QEAA@XZ
??1_OutputArray@cv@@QEAA@XZ
??4Algorithm@cv@@QEAAAEAV01@AEBV01@@Z
??4CLAHE@cv@@QEAAAEAV01@$$QEAV01@@Z
??4CLAHE@cv@@QEAAAEAV01@AEBV01@@Z
??4ConjGradSolver@cv@@QEAAAEAV01@$$QEAV01@@Z
??4ConjGradSolver@cv@@QEAAAEAV01@AEBV01@@Z
??4DCT2D@hal@cv@@QEAAAEAU012@AEBU012@@Z
??4DFT1D@hal@cv@@QEAAAEAU012@AEBU012@@Z
??4DFT2D@hal@cv@@QEAAAEAU012@AEBU012@@Z
??4DMatch@cv@@QEAAAEAV01@$$QEAV01@@Z
??4DMatch@cv@@QEAAAEAV01@AEBV01@@Z
??4DownhillSolver@cv@@QEAAAEAV01@$$QEAV01@@Z
??4DownhillSolver@cv@@QEAAAEAV01@AEBV01@@Z
??4Exception@cv@@QEAAAEAV01@AEBV01@@Z
??4FileNode@cv@@QEAAAEAV01@AEBV01@@Z
??4FileNodeIterator@cv@@QEAAAEAV01@AEBV01@@Z
??4FileStorage@cv@@QEAAAEAV01@AEBV01@@Z
??4Filter2D@hal@cv@@QEAAAEAU012@AEBU012@@Z
??4Formatted@cv@@QEAAAEAV01@AEBV01@@Z
??4Formatter@cv@@QEAAAEAV01@AEBV01@@Z
??4Function@MinProblemSolver@cv@@QEAAAEAV012@AEBV012@@Z
??4GeneralizedHough@cv@@QEAAAEAV01@$$QEAV01@@Z
??4GeneralizedHough@cv@@QEAAAEAV01@AEBV01@@Z
??4GeneralizedHoughBallard@cv@@QEAAAEAV01@$$QEAV01@@Z
??4GeneralizedHoughBallard@cv@@QEAAAEAV01@AEBV01@@Z
??4GeneralizedHoughGuil@cv@@QEAAAEAV01@$$QEAV01@@Z
??4GeneralizedHoughGuil@cv@@QEAAAEAV01@AEBV01@@Z
??4Hamming@cv@@QEAAAEAU01@$$QEAU01@@Z
??4Hamming@cv@@QEAAAEAU01@AEBU01@@Z
??4Hdr@SparseMat@cv@@QEAAAEAU012@$$QEAU012@@Z
??4Hdr@SparseMat@cv@@QEAAAEAU012@AEBU012@@Z
??4KernelArg@ocl@cv@@QEAAAEAV012@$$QEAV012@@Z
??4KernelArg@ocl@cv@@QEAAAEAV012@AEBV012@@Z
??4KeyPoint@cv@@QEAAAEAV01@$$QEAV01@@Z
??4KeyPoint@cv@@QEAAAEAV01@AEBV01@@Z
??4LDA@cv@@QEAAAEAV01@AEBV01@@Z
??4LineIterator@cv@@QEAAAEAV01@$$QEAV01@@Z
??4LineIterator@cv@@QEAAAEAV01@AEBV01@@Z
??4LineSegmentDetector@cv@@QEAAAEAV01@AEBV01@@Z
??4Mat@cv@@QEAAAEAV01@$$QEAV01@@Z
??4Mat@cv@@QEAAAEAV01@AEBV01@@Z
??4Mat@cv@@QEAAAEAV01@AEBVMatExpr@1@@Z
??4MatAllocator@cv@@QEAAAEAV01@AEBV01@@Z
??4MatConstIterator@cv@@QEAAAEAV01@AEBV01@@Z
??4MatExpr@cv@@QEAAAEAV01@$$QEAV01@@Z
??4MatExpr@cv@@QEAAAEAV01@AEBV01@@Z
??4MatOp@cv@@QEAAAEAV01@AEBV01@@Z
??4MatSize@cv@@QEAAAEAU01@$$QEAU01@@Z
??4MatSize@cv@@QEAAAEAU01@AEBU01@@Z
??4MatStep@cv@@QEAAAEAU01@_K@Z
??4Matx_AddOp@cv@@QEAAAEAU01@AEBU01@@Z
??4Matx_DivOp@cv@@QEAAAEAU01@AEBU01@@Z
??4Matx_MatMulOp@cv@@QEAAAEAU01@AEBU01@@Z
??4Matx_MulOp@cv@@QEAAAEAU01@AEBU01@@Z
??4Matx_ScaleOp@cv@@QEAAAEAU01@AEBU01@@Z
??4Matx_SubOp@cv@@QEAAAEAU01@AEBU01@@Z
??4Matx_TOp@cv@@QEAAAEAU01@AEBU01@@Z
??4MinProblemSolver@cv@@QEAAAEAV01@$$QEAV01@@Z
??4MinProblemSolver@cv@@QEAAAEAV01@AEBV01@@Z
??4Moments@cv@@QEAAAEAV01@$$QEAV01@@Z
??4Moments@cv@@QEAAAEAV01@AEBV01@@Z
??4Morph@hal@cv@@QEAAAEAU012@AEBU012@@Z
??4NAryMatIterator@cv@@QEAAAEAV01@$$QEAV01@@Z
??4NAryMatIterator@cv@@QEAAAEAV01@AEBV01@@Z
??4Node@SparseMat@cv@@QEAAAEAU012@$$QEAU012@@Z
??4Node@SparseMat@cv@@QEAAAEAU012@AEBU012@@Z
??4PCA@cv@@QEAAAEAV01@$$QEAV01@@Z
??4PCA@cv@@QEAAAEAV01@AEBV01@@Z
??4ParallelLoopBody@cv@@QEAAAEAV01@AEBV01@@Z
??4ProgramEntry@internal@ocl@cv@@QEAAAEAU0123@$$QEAU0123@@Z
??4ProgramEntry@internal@ocl@cv@@QEAAAEAU0123@AEBU0123@@Z
??4QuadEdge@Subdiv2D@cv@@QEAAAEAU012@$$QEAU012@@Z
??4QuadEdge@Subdiv2D@cv@@QEAAAEAU012@AEBU012@@Z
??4RNG@cv@@QEAAAEAV01@$$QEAV01@@Z
??4RNG@cv@@QEAAAEAV01@AEBV01@@Z
??4RNG_MT19937@cv@@QEAAAEAV01@$$QEAV01@@Z
??4RNG_MT19937@cv@@QEAAAEAV01@AEBV01@@Z
??4Range@cv@@QEAAAEAV01@$$QEAV01@@Z
??4Range@cv@@QEAAAEAV01@AEBV01@@Z
??4RotatedRect@cv@@QEAAAEAV01@$$QEAV01@@Z
??4RotatedRect@cv@@QEAAAEAV01@AEBV01@@Z
??4SVD@cv@@QEAAAEAV01@$$QEAV01@@Z
??4SVD@cv@@QEAAAEAV01@AEBV01@@Z
??4SepFilter2D@hal@cv@@QEAAAEAU012@AEBU012@@Z
??4SparseMat@cv@@QEAAAEAV01@AEBV01@@Z
??4SparseMat@cv@@QEAAAEAV01@AEBVMat@1@@Z
??4SparseMatConstIterator@cv@@QEAAAEAV01@AEBV01@@Z
??4SparseMatIterator@cv@@QEAAAEAV01@AEBV01@@Z
??4Subdiv2D@cv@@QEAAAEAV01@$$QEAV01@@Z
??4Subdiv2D@cv@@QEAAAEAV01@AEBV01@@Z
??4TLSDataContainer@cv@@QEAAAEAV01@AEBV01@@Z
??4TermCriteria@cv@@QEAAAEAV01@$$QEAV01@@Z
??4TermCriteria@cv@@QEAAAEAV01@AEBV01@@Z
??4TickMeter@cv@@QEAAAEAV01@$$QEAV01@@Z
??4TickMeter@cv@@QEAAAEAV01@AEBV01@@Z
??4TraceArg@details@trace@utils@cv@@QEAAAEAU01234@$$QEAU01234@@Z
??4TraceArg@details@trace@utils@cv@@QEAAAEAU01234@AEBU01234@@Z
??4UMat@cv@@QEAAAEAV01@$$QEAV01@@Z
??4UMat@cv@@QEAAAEAV01@AEBV01@@Z
??4UMatData@cv@@QEAAAEAU01@AEBU01@@Z
??4Vertex@Subdiv2D@cv@@QEAAAEAU012@$$QEAU012@@Z
??4Vertex@Subdiv2D@cv@@QEAAAEAU012@AEBU012@@Z
??4WriteStructContext@internal@cv@@QEAAAEAV012@AEBV012@@Z
??4_InputArray@cv@@QEAAAEAV01@AEBV01@@Z
??4_InputOutputArray@cv@@QEAAAEAV01@$$QEAV01@@Z
??4_InputOutputArray@cv@@QEAAAEAV01@AEBV01@@Z
??4_OutputArray@cv@@QEAAAEAV01@$$QEAV01@@Z
??4_OutputArray@cv@@QEAAAEAV01@AEBV01@@Z
??4softdouble@cv@@QEAAAEAU01@AEBU01@@Z
??4softfloat@cv@@QEAAAEAU01@AEBU01@@Z
??8MatSize@cv@@QEBA_NAEBU01@@Z
??8RNG@cv@@QEBA_NAEBV01@@Z
??9MatSize@cv@@QEBA_NAEBU01@@Z
??AMatConstIterator@cv@@QEBAPEBE_J@Z
??AMatSize@cv@@QEAAAEAHH@Z
??AMatSize@cv@@QEBAAEBHH@Z
??AMatStep@cv@@QEAAAEA_KH@Z
??AMatStep@cv@@QEBAAEB_KH@Z
??BFileNode@cv@@QEBA?AV?$basic_string@DU?$char_traits@D@std@@V?$allocator@D@2@@std@@XZ
??BMatExpr@cv@@QEBA?AVMat@1@XZ
??BMatSize@cv@@QEBAPEBHXZ
??BMatStep@cv@@QEBA_KXZ
??BRNG@cv@@QEAACXZ
??BRNG@cv@@QEAAEXZ
??BRNG@cv@@QEAAFXZ
??BRNG@cv@@QEAAGXZ
??BRNG@cv@@QEAAHXZ
??BRNG@cv@@QEAAIXZ
??BRNG@cv@@QEAAMXZ
??BRNG@cv@@QEAANXZ
??Bsoftdouble@cv@@QEBANXZ
??Bsoftfloat@cv@@QEBAMXZ
??DLineIterator@cv@@QEAAPEAEXZ
??DMatConstIterator@cv@@QEBAPEBEXZ
??ELineIterator@cv@@QEAA?AV01@H@Z
??ELineIterator@cv@@QEAAAEAV01@XZ
??EMatConstIterator@cv@@QEAA?AV01@H@Z
??EMatConstIterator@cv@@QEAAAEAV01@XZ
??ESparseMatConstIterator@cv@@QEAA?AV01@H@Z
??ESparseMatIterator@cv@@QEAA?AV01@H@Z
??ESparseMatIterator@cv@@QEAAAEAV01@XZ
??FMatConstIterator@cv@@QEAA?AV01@H@Z
??FMatConstIterator@cv@@QEAAAEAV01@XZ
??Gsoftdouble@cv@@QEBA?AU01@XZ
??Gsoftfloat@cv@@QEBA?AU01@XZ
??MDMatch@cv@@QEBA_NAEBV01@@Z
??RMat@cv@@QEBA?AV01@AEBV?$Rect_@H@1@@Z
??RMat@cv@@QEBA?AV01@AEBV?$vector@VRange@cv@@V?$allocator@VRange@cv@@@std@@@std@@@Z
??RMat@cv@@QEBA?AV01@PEBVRange@1@@Z
??RMat@cv@@QEBA?AV01@VRange@1@0@Z
??RMatSize@cv@@QEBA?AV?$Size_@H@1@XZ
??RRNG@cv@@QEAAII@Z
??RRNG@cv@@QEAAIXZ
??RUMat@cv@@QEBA?AV01@AEBV?$Rect_@H@1@@Z
??RUMat@cv@@QEBA?AV01@AEBV?$vector@VRange@cv@@V?$allocator@VRange@cv@@@std@@@std@@@Z
??RUMat@cv@@QEBA?AV01@PEBVRange@1@@Z
??RUMat@cv@@QEBA?AV01@VRange@1@0@Z
??Xsoftdouble@cv@@QEAAAEAU01@AEBU01@@Z
??Xsoftfloat@cv@@QEAAAEAU01@AEBU01@@Z
??YMatConstIterator@cv@@QEAAAEAV01@_J@Z
??Ysoftdouble@cv@@QEAAAEAU01@AEBU01@@Z
??Ysoftfloat@cv@@QEAAAEAU01@AEBU01@@Z
??ZMatConstIterator@cv@@QEAAAEAV01@_J@Z
??Zsoftdouble@cv@@QEAAAEAU01@AEBU01@@Z
??Zsoftfloat@cv@@QEAAAEAU01@AEBU01@@Z
??_0softdouble@cv@@QEAAAEAU01@AEBU01@@Z
??_0softfloat@cv@@QEAAAEAU01@AEBU01@@Z
??_1softdouble@cv@@QEAAAEAU01@AEBU01@@Z
??_1softfloat@cv@@QEAAAEAU01@AEBU01@@Z
??_FLDA@cv@@QEAAXXZ
??_FNodeData@instr@cv@@QEAAXXZ
??_FUMat@cv@@QEAAXXZ
?Canny@cv@@YAXAEBV_InputArray@1@0AEBV_OutputArray@1@NN_N@Z
?Canny@cv@@YAXAEBV_InputArray@1@AEBV_OutputArray@1@NNH_N@Z
?EMD@cv@@YAMAEBV_InputArray@1@0H0PEAMAEBV_OutputArray@1@@Z
?GaussianBlur@cv@@YAXAEBV_InputArray@1@AEBV_OutputArray@1@V?$Size_@H@1@NNH@Z
?HoughCircles@cv@@YAXAEBV_InputArray@1@AEBV_OutputArray@1@HNNNNHH@Z
?HoughLines@cv@@YAXAEBV_InputArray@1@AEBV_OutputArray@1@NNHNNNN@Z
?HoughLinesP@cv@@YAXAEBV_InputArray@1@AEBV_OutputArray@1@NNHNN@Z
?HoughLinesPointSet@cv@@YAXAEBV_InputArray@1@AEBV_OutputArray@1@HHNNNNNN@Z
?HuMoments@cv@@YAXAEBVMoments@1@AEBV_OutputArray@1@@Z
?HuMoments@cv@@YAXAEBVMoments@1@QEAN@Z
?Laplacian@cv@@YAXAEBV_InputArray@1@AEBV_OutputArray@1@HHNNH@Z
?Local@KernelArg@ocl@cv@@SA?AV123@_K@Z
?PtrReadOnly@KernelArg@ocl@cv@@SA?AV123@AEBVUMat@3@@Z
?PtrReadWrite@KernelArg@ocl@cv@@SA?AV123@AEBVUMat@3@@Z
?PtrWriteOnly@KernelArg@ocl@cv@@SA?AV123@AEBVUMat@3@@Z
?ReadOnly@KernelArg@ocl@cv@@SA?AV123@AEBVUMat@3@HH@Z
?ReadOnlyNoSize@KernelArg@ocl@cv@@SA?AV123@AEBVUMat@3@HH@Z
?ReadWrite@KernelArg@ocl@cv@@SA?AV123@AEBVUMat@3@HH@Z
?ReadWriteNoSize@KernelArg@ocl@cv@@SA?AV123@AEBVUMat@3@HH@Z
?Scharr@cv@@YAXAEBV_InputArray@1@AEBV_OutputArray@1@HHHNNH@Z
?Sobel@cv@@YAXAEBV_InputArray@1@AEBV_OutputArray@1@HHHHNNH@Z
?WriteOnly@KernelArg@ocl@cv@@SA?AV123@AEBVUMat@3@HH@Z
?WriteOnlyNoSize@KernelArg@ocl@cv@@SA?AV123@AEBVUMat@3@HH@Z
?__autoclassinit2@CommandLineParser@cv@@QEAAX_K@Z
?__autoclassinit2@Context@ocl@cv@@QEAAX_K@Z
?__autoclassinit2@Device@ocl@cv@@QEAAX_K@Z
?__autoclassinit2@FileNode@cv@@QEAAX_K@Z
?__autoclassinit2@FileNodeIterator@cv@@QEAAX_K@Z
?__autoclassinit2@Image2D@ocl@cv@@QEAAX_K@Z
?__autoclassinit2@Kernel@ocl@cv@@QEAAX_K@Z
?__autoclassinit2@KernelArg@ocl@cv@@QEAAX_K@Z
?__autoclassinit2@LDA@cv@@QEAAX_K@Z
?__autoclassinit2@LineIterator@cv@@QEAAX_K@Z
?__autoclassinit2@Mat@cv@@QEAAX_K@Z
?__autoclassinit2@MatConstIterator@cv@@QEAAX_K@Z
?__autoclassinit2@MatExpr@cv@@QEAAX_K@Z
?__autoclassinit2@NAryMatIterator@cv@@QEAAX_K@Z
?__autoclassinit2@NodeData@instr@cv@@QEAAX_K@Z
?__autoclassinit2@PCA@cv@@QEAAX_K@Z
?__autoclassinit2@Platform@ocl@cv@@QEAAX_K@Z
?__autoclassinit2@PlatformInfo@ocl@cv@@QEAAX_K@Z
?__autoclassinit2@Program@ocl@cv@@QEAAX_K@Z
?__autoclassinit2@ProgramSource@ocl@cv@@QEAAX_K@Z
?__autoclassinit2@Queue@ocl@cv@@QEAAX_K@Z
?__autoclassinit2@Region@details@trace@utils@cv@@QEAAX_K@Z
?__autoclassinit2@SVD@cv@@QEAAX_K@Z
?__autoclassinit2@SparseMat@cv@@QEAAX_K@Z
?__autoclassinit2@SparseMatConstIterator@cv@@QEAAX_K@Z
?__autoclassinit2@SparseMatIterator@cv@@QEAAX_K@Z
?__autoclassinit2@Subdiv2D@cv@@QEAAX_K@Z
?__autoclassinit2@UMat@cv@@QEAAX_K@Z
?__autoclassinit2@WriteStructContext@internal@cv@@QEAAX_K@Z
?__autoclassinit2@_InputArray@cv@@QEAAX_K@Z
?__autoclassinit2@_InputOutputArray@cv@@QEAAX_K@Z
?__autoclassinit2@_OutputArray@cv@@QEAAX_K@Z
?accumulate@cv@@YAXAEBV_InputArray@1@AEBV_InputOutputArray@1@0@Z
?accumulateProduct@cv@@YAXAEBV_InputArray@1@0AEBV_InputOutputArray@1@0@Z
?accumulateSquare@cv@@YAXAEBV_InputArray@1@AEBV_InputOutputArray@1@0@Z
?accumulateWeighted@cv@@YAXAEBV_InputArray@1@AEBV_InputOutputArray@1@N0@Z
?adaptiveThreshold@cv@@YAXAEBV_InputArray@1@AEBV_OutputArray@1@NHHHN@Z
?addref@Mat@cv@@QEAAXXZ
?addref@SparseMat@cv@@QEAAXXZ
?addref@UMat@cv@@QEAAXXZ
?all@Range@cv@@SA?AV12@XZ
?applyColorMap@cv@@YAXAEBV_InputArray@1@AEBV_OutputArray@1@0@Z
?applyColorMap@cv@@YAXAEBV_InputArray@1@AEBV_OutputArray@1@H@Z
?approxPolyDP@cv@@YAXAEBV_InputArray@1@AEBV_OutputArray@1@N_N@Z
?arcLength@cv@@YANAEBV_InputArray@1@_N@Z
?arrowedLine@cv@@YAXAEBV_InputOutputArray@1@V?$Point_@H@1@1AEBV?$Scalar_@N@1@HHHN@Z
?assignTo@Mat@cv@@QEBAXAEAV12@H@Z
?assignTo@SparseMat@cv@@QEBAXAEAV12@H@Z
?assignTo@UMat@cv@@QEBAXAEAV12@H@Z
?begin@SparseMat@cv@@QEAA?AVSparseMatIterator@2@XZ
?begin@SparseMat@cv@@QEBA?AVSparseMatConstIterator@2@XZ
?bilateralFilter@cv@@YAXAEBV_InputArray@1@AEBV_OutputArray@1@HNNH@Z
?blendLinear@cv@@YAXAEBV_InputArray@1@000AEBV_OutputArray@1@@Z
?blur@cv@@YAXAEBV_InputArray@1@AEBV_OutputArray@1@V?$Size_@H@1@V?$Point_@H@1@H@Z
?boundingRect@cv@@YA?AV?$Rect_@H@1@AEBV_InputArray@1@@Z
?boxFilter@cv@@YAXAEBV_InputArray@1@AEBV_OutputArray@1@HV?$Size_@H@1@V?$Point_@H@1@_NH@Z
?boxPoints@cv@@YAXVRotatedRect@1@AEBV_OutputArray@1@@Z
?buildPyramid@cv@@YAXAEBV_InputArray@1@AEBV_OutputArray@1@HH@Z
?calcBackProject@cv@@YAXAEBV_InputArray@1@AEBV?$vector@HV?$allocator@H@std@@@std@@0AEBV_OutputArray@1@AEBV?$vector@MV?$allocator@M@std@@@4@N@Z
?calcBackProject@cv@@YAXPEBVMat@1@HPEBHAEBVSparseMat@1@AEBV_OutputArray@1@PEAPEBMN_N@Z
?calcBackProject@cv@@YAXPEBVMat@1@HPEBHAEBV_InputArray@1@AEBV_OutputArray@1@PEAPEBMN_N@Z
?calcHist@cv@@YAXAEBV_InputArray@1@AEBV?$vector@HV?$allocator@H@std@@@std@@0AEBV_OutputArray@1@1AEBV?$vector@MV?$allocator@M@std@@@4@_N@Z
?calcHist@cv@@YAXPEBVMat@1@HPEBHAEBV_InputArray@1@AEAVSparseMat@1@H1PEAPEBM_N5@Z
?calcHist@cv@@YAXPEBVMat@1@HPEBHAEBV_InputArray@1@AEBV_OutputArray@1@H1PEAPEBM_N5@Z
?calcVoronoi@Subdiv2D@cv@@IEAAXXZ
?channels@Mat@cv@@QEBAHXZ
?channels@SparseMat@cv@@QEBAHXZ
?channels@UMat@cv@@QEBAHXZ
?checkSubdiv@Subdiv2D@cv@@IEBAXXZ
?circle@cv@@YAXAEBV_InputOutputArray@1@V?$Point_@H@1@HAEBV?$Scalar_@N@1@HHH@Z
?clear@Algorithm@cv@@UEAAXXZ
?clearVoronoi@Subdiv2D@cv@@IEAAXXZ
?clipLine@cv@@YA_NV?$Rect_@H@1@AEAV?$Point_@H@1@1@Z
?clipLine@cv@@YA_NV?$Size_@H@1@AEAV?$Point_@H@1@1@Z
?clipLine@cv@@YA_NV?$Size_@_J@1@AEAV?$Point_@_J@1@1@Z
?clone@Mat@cv@@QEBA?AV12@XZ
?clone@SparseMat@cv@@QEBA?AV12@XZ
?clone@UMat@cv@@QEBA?AV12@XZ
?col@Mat@cv@@QEBA?AV12@H@Z
?col@UMat@cv@@QEBA?AV12@H@Z
?colRange@Mat@cv@@QEBA?AV12@AEBVRange@2@@Z
?colRange@Mat@cv@@QEBA?AV12@HH@Z
?colRange@UMat@cv@@QEBA?AV12@AEBVRange@2@@Z
?colRange@UMat@cv@@QEBA?AV12@HH@Z
?compareHist@cv@@YANAEBVSparseMat@1@0H@Z
?compareHist@cv@@YANAEBV_InputArray@1@0H@Z
?connectEdges@Subdiv2D@cv@@IEAAHHH@Z
?connectedComponents@cv@@YAHAEBV_InputArray@1@AEBV_OutputArray@1@HH@Z
?connectedComponents@cv@@YAHAEBV_InputArray@1@AEBV_OutputArray@1@HHH@Z
?connectedComponentsWithStats@cv@@YAHAEBV_InputArray@1@AEBV_OutputArray@1@11HH@Z
?connectedComponentsWithStats@cv@@YAHAEBV_InputArray@1@AEBV_OutputArray@1@11HHH@Z
?contourArea@cv@@YANAEBV_InputArray@1@_N@Z
?convertMaps@cv@@YAXAEBV_InputArray@1@0AEBV_OutputArray@1@1H_N@Z
?convexHull@cv@@YAXAEBV_InputArray@1@AEBV_OutputArray@1@_N2@Z
?convexityDefects@cv@@YAXAEBV_InputArray@1@0AEBV_OutputArray@1@@Z
?copyOnMap@UMatData@cv@@QEBA_NXZ
?cornerEigenValsAndVecs@cv@@YAXAEBV_InputArray@1@AEBV_OutputArray@1@HHH@Z
?cornerHarris@cv@@YAXAEBV_InputArray@1@AEBV_OutputArray@1@HHNH@Z
?cornerMinEigenVal@cv@@YAXAEBV_InputArray@1@AEBV_OutputArray@1@HHH@Z
?cornerSubPix@cv@@YAXAEBV_InputArray@1@AEBV_InputOutputArray@1@V?$Size_@H@1@2VTermCriteria@1@@Z
?create@Filter2D@hal@cv@@SA?AU?$Ptr@UFilter2D@hal@cv@@@3@PEAE_KHHHHHHHHNHH_N2@Z
?create@Mat@cv@@QEAAXHHH@Z
?create@Mat@cv@@QEAAXV?$Size_@H@2@H@Z
?create@Morph@hal@cv@@SA?AU?$Ptr@UMorph@hal@cv@@@3@HHHHHHPEAE_KHHHHHPEBNH_N3@Z
?create@SepFilter2D@hal@cv@@SA?AU?$Ptr@USepFilter2D@hal@cv@@@3@HHHPEAEH0HHHNH@Z
?create@UMat@cv@@QEAAXHHHW4UMatUsageFlags@2@@Z
?create@UMat@cv@@QEAAXV?$Size_@H@2@HW4UMatUsageFlags@2@@Z
?createCLAHE@cv@@YA?AU?$Ptr@VCLAHE@cv@@@1@NV?$Size_@H@1@@Z
?createGeneralizedHoughBallard@cv@@YA?AU?$Ptr@VGeneralizedHoughBallard@cv@@@1@XZ
?createGeneralizedHoughGuil@cv@@YA?AU?$Ptr@VGeneralizedHoughGuil@cv@@@1@XZ
?createHanningWindow@cv@@YAXAEBV_OutputArray@1@V?$Size_@H@1@H@Z
?createLineSegmentDetector@cv@@YA?AU?$Ptr@VLineSegmentDetector@cv@@@1@HNNNNNNH@Z
?createMorphologyFilter@cv@@YA?AU?$Ptr@VFilterEngine@cv@@@1@HHAEBV_InputArray@1@V?$Point_@H@1@HHAEBV?$Scalar_@N@1@@Z
?cvtBGR5x5toBGR@hal@cv@@YAXPEBE_KPEAE1HHH_NH@Z
?cvtBGR5x5toGray@hal@cv@@YAXPEBE_KPEAE1HHH@Z
?cvtBGRtoBGR5x5@hal@cv@@YAXPEBE_KPEAE1HHH_NH@Z
?cvtBGRtoBGR@hal@cv@@YAXPEBE_KPEAE1HHHHH_N@Z
?cvtBGRtoGray@hal@cv@@YAXPEBE_KPEAE1HHHH_N@Z
?cvtBGRtoHSV@hal@cv@@YAXPEBE_KPEAE1HHHH_N33@Z
?cvtBGRtoLab@hal@cv@@YAXPEBE_KPEAE1HHHH_N33@Z
?cvtBGRtoThreePlaneYUV@hal@cv@@YAXPEBE_KPEAE1HHH_NH@Z
?cvtBGRtoTwoPlaneYUV@hal@cv@@YAXPEBE_KPEAE21HHH_NH@Z
?cvtBGRtoXYZ@hal@cv@@YAXPEBE_KPEAE1HHHH_N@Z
?cvtBGRtoYUV@hal@cv@@YAXPEBE_KPEAE1HHHH_N3@Z
?cvtColor@cv@@YAXAEBV_InputArray@1@AEBV_OutputArray@1@HH@Z
?cvtColorTwoPlane@cv@@YAXAEBV_InputArray@1@0AEBV_OutputArray@1@H@Z
?cvtGraytoBGR5x5@hal@cv@@YAXPEBE_KPEAE1HHH@Z
?cvtGraytoBGR@hal@cv@@YAXPEBE_KPEAE1HHHH@Z
?cvtHSVtoBGR@hal@cv@@YAXPEBE_KPEAE1HHHH_N33@Z
?cvtLabtoBGR@hal@cv@@YAXPEBE_KPEAE1HHHH_N33@Z
?cvtMultipliedRGBAtoRGBA@hal@cv@@YAXPEBE_KPEAE1HH@Z
?cvtOnePlaneYUVtoBGR@hal@cv@@YAXPEBE_KPEAE1HHH_NHH@Z
?cvtRGBAtoMultipliedRGBA@hal@cv@@YAXPEBE_KPEAE1HH@Z
?cvtThreePlaneYUVtoBGR@hal@cv@@YAXPEBE_KPEAE1HHH_NH@Z
?cvtTwoPlaneYUVtoBGR@hal@cv@@YAXPEBE0_KPEAE1HHH_NH@Z
?cvtTwoPlaneYUVtoBGR@hal@cv@@YAXPEBE_KPEAE1HHH_NH@Z
?cvtXYZtoBGR@hal@cv@@YAXPEBE_KPEAE1HHHH_N@Z
?cvtYUVtoBGR@hal@cv@@YAXPEBE_KPEAE1HHHH_N3@Z
?deleteEdge@Subdiv2D@cv@@IEAAXH@Z
?deletePoint@Subdiv2D@cv@@IEAAXH@Z
?demosaicing@cv@@YAXAEBV_InputArray@1@AEBV_OutputArray@1@HH@Z
?depth@Mat@cv@@QEBAHXZ
?depth@SparseMat@cv@@QEBAHXZ
?depth@UMat@cv@@QEBAHXZ
?deviceCopyObsolete@UMatData@cv@@QEBA_NXZ
?deviceMemMapped@UMatData@cv@@QEBA_NXZ
?dilate@cv@@YAXAEBV_InputArray@1@AEBV_OutputArray@1@0V?$Point_@H@1@HHAEBV?$Scalar_@N@1@@Z
?dims@MatSize@cv@@QEBAHXZ
?dims@SparseMat@cv@@QEBAHXZ
?distanceTransform@cv@@YAXAEBV_InputArray@1@AEBV_OutputArray@1@1HHH@Z
?distanceTransform@cv@@YAXAEBV_InputArray@1@AEBV_OutputArray@1@HHH@Z
?drawContours@cv@@YAXAEBV_InputOutputArray@1@AEBV_InputArray@1@HAEBV?$Scalar_@N@1@HH1HV?$Point_@H@1@@Z
?drawMarker@cv@@YAXAEBV_InputOutputArray@1@V?$Point_@H@1@AEBV?$Scalar_@N@1@HHHH@Z
?edgeDst@Subdiv2D@cv@@QEBAHHPEAV?$Point_@M@2@@Z
?edgeOrg@Subdiv2D@cv@@QEBAHHPEAV?$Point_@M@2@@Z
?eigenvalues@LDA@cv@@QEBA?AVMat@2@XZ
?eigenvectors@LDA@cv@@QEBA?AVMat@2@XZ
?elemSize1@Mat@cv@@QEBA_KXZ
?elemSize1@SparseMat@cv@@QEBA_KXZ
?elemSize1@UMat@cv@@QEBA_KXZ
?elemSize@Mat@cv@@QEBA_KXZ
?elemSize@SparseMat@cv@@QEBA_KXZ
?elemSize@UMat@cv@@QEBA_KXZ
?ellipse2Poly@cv@@YAXV?$Point_@H@1@V?$Size_@H@1@HHHHAEAV?$vector@V?$Point_@H@cv@@V?$allocator@V?$Point_@H@cv@@@std@@@std@@@Z
?ellipse2Poly@cv@@YAXV?$Point_@N@1@V?$Size_@N@1@HHHHAEAV?$vector@V?$Point_@N@cv@@V?$allocator@V?$Point_@N@cv@@@std@@@std@@@Z
?ellipse@cv@@YAXAEBV_InputOutputArray@1@AEBVRotatedRect@1@AEBV?$Scalar_@N@1@HH@Z
?ellipse@cv@@YAXAEBV_InputOutputArray@1@V?$Point_@H@1@V?$Size_@H@1@NNNAEBV?$Scalar_@N@1@HHH@Z
?empty@Algorithm@cv@@UEBA_NXZ
?empty@Mat@cv@@QEBA_NXZ
?empty@Range@cv@@QEBA_NXZ
?empty@UMat@cv@@QEBA_NXZ
?end@SparseMat@cv@@QEAA?AVSparseMatIterator@2@XZ
?end@SparseMat@cv@@QEBA?AVSparseMatConstIterator@2@XZ
?eps@softdouble@cv@@SA?AU12@XZ
?eps@softfloat@cv@@SA?AU12@XZ
?equalizeHist@cv@@YAXAEBV_InputArray@1@AEBV_OutputArray@1@@Z
?erode@cv@@YAXAEBV_InputArray@1@AEBV_OutputArray@1@0V?$Point_@H@1@HHAEBV?$Scalar_@N@1@@Z
?fillConvexPoly@cv@@YAXAEBV_InputOutputArray@1@AEBV_InputArray@1@AEBV?$Scalar_@N@1@HH@Z
?fillConvexPoly@cv@@YAXAEBV_InputOutputArray@1@PEBV?$Point_@H@1@HAEBV?$Scalar_@N@1@HH@Z
?fillPoly@cv@@YAXAEBV_InputOutputArray@1@AEBV_InputArray@1@AEBV?$Scalar_@N@1@HHV?$Point_@H@1@@Z
?fillPoly@cv@@YAXAEBV_InputOutputArray@1@PEAPEBV?$Point_@H@1@PEBHHAEBV?$Scalar_@N@1@HHV31@@Z
?filter2D@cv@@YAXAEBV_InputArray@1@AEBV_OutputArray@1@H0V?$Point_@H@1@NH@Z
?filter2D@hal@cv@@YAXHHHPEAE_K01HHHHHH01HHHHNH_N@Z
?findContours@cv@@YAXAEBV_InputArray@1@AEBV_OutputArray@1@1HHV?$Point_@H@1@@Z
?findContours@cv@@YAXAEBV_InputArray@1@AEBV_OutputArray@1@HHV?$Point_@H@1@@Z
?findFileOrKeep@samples@cv@@YA?AV?$basic_string@DU?$char_traits@D@std@@V?$allocator@D@2@@std@@AEBV34@_N@Z
?findNearest@Subdiv2D@cv@@QEAAHV?$Point_@M@2@PEAV32@@Z
?fitEllipse@cv@@YA?AVRotatedRect@1@AEBV_InputArray@1@@Z
?fitEllipseAMS@cv@@YA?AVRotatedRect@1@AEBV_InputArray@1@@Z
?fitEllipseDirect@cv@@YA?AVRotatedRect@1@AEBV_InputArray@1@@Z
?fitLine@cv@@YAXAEBV_InputArray@1@AEBV_OutputArray@1@HNNN@Z
?floodFill@cv@@YAHAEBV_InputOutputArray@1@0V?$Point_@H@1@V?$Scalar_@N@1@PEAV?$Rect_@H@1@22H@Z
?floodFill@cv@@YAHAEBV_InputOutputArray@1@V?$Point_@H@1@V?$Scalar_@N@1@PEAV?$Rect_@H@1@22H@Z
?fromRaw@softdouble@cv@@SA?AU12@_K@Z
?fromRaw@softfloat@cv@@SA?BU12@I@Z
?getAffineTransform@cv@@YA?AVMat@1@AEBV_InputArray@1@0@Z
?getAffineTransform@cv@@YA?AVMat@1@QEBV?$Point_@M@1@0@Z
?getCounter@TickMeter@cv@@QEBA_JXZ
?getDerivKernels@cv@@YAXAEBV_OutputArray@1@0HHH_NH@Z
?getEdge@Subdiv2D@cv@@QEBAHHH@Z
?getEdgeList@Subdiv2D@cv@@QEBAXAEAV?$vector@V?$Vec@M$03@cv@@V?$allocator@V?$Vec@M$03@cv@@@std@@@std@@@Z
?getExp@softdouble@cv@@QEBAHXZ
?getExp@softfloat@cv@@QEBAHXZ
?getFlags@_InputArray@cv@@QEBAHXZ
?getFontScaleFromHeight@cv@@YANHHH@Z
?getFrac@softdouble@cv@@QEBA?AU12@XZ
?getFrac@softfloat@cv@@QEBA?AU12@XZ
?getGaborKernel@cv@@YA?AVMat@1@V?$Size_@H@1@NNNNNH@Z
?getGaussianKernel@cv@@YA?AVMat@1@HNH@Z
?getImpl@Context@ocl@cv@@QEBAPEAUImpl@123@XZ
?getImpl@Program@ocl@cv@@QEBAPEAUImpl@123@XZ
?getImpl@ProgramSource@ocl@cv@@QEBAPEAUImpl@123@XZ
?getImpl@Queue@ocl@cv@@QEBAPEAUImpl@123@XZ
?getLeadingEdgeList@Subdiv2D@cv@@QEBAXAEAV?$vector@HV?$allocator@H@std@@@std@@@Z
?getMat@_InputArray@cv@@QEBA?AVMat@2@H@Z
?getMeanMs@NodeData@instr@cv@@QEBANXZ
?getObj@_InputArray@cv@@QEBAPEAXXZ
?getPerspectiveTransform@cv@@YA?AVMat@1@AEBV_InputArray@1@0H@Z
?getPerspectiveTransform@cv@@YA?AVMat@1@QEBV?$Point_@M@1@0H@Z
?getRectSubPix@cv@@YAXAEBV_InputArray@1@V?$Size_@H@1@V?$Point_@M@1@AEBV_OutputArray@1@H@Z
?getRotationMatrix2D@cv@@YA?AVMat@1@V?$Point_@M@1@NN@Z
?getSign@softdouble@cv@@QEBA_NXZ
?getSign@softfloat@cv@@QEBA_NXZ
?getStructuringElement@cv@@YA?AVMat@1@HV?$Size_@H@1@V?$Point_@H@1@@Z
?getSz@_InputArray@cv@@QEBA?AV?$Size_@H@2@XZ
?getTextSize@cv@@YA?AV?$Size_@H@1@AEBV?$basic_string@DU?$char_traits@D@std@@V?$allocator@D@2@@std@@HNHPEAH@Z
?getTimeMicro@TickMeter@cv@@QEBANXZ
?getTimeMilli@TickMeter@cv@@QEBANXZ
?getTimeSec@TickMeter@cv@@QEBANXZ
?getTimeTicks@TickMeter@cv@@QEBA_JXZ
?getTotalMs@NodeData@instr@cv@@QEBANXZ
?getTriangleList@Subdiv2D@cv@@QEBAXAEAV?$vector@V?$Vec@M$05@cv@@V?$allocator@V?$Vec@M$05@cv@@@std@@@std@@@Z
?getVertex@Subdiv2D@cv@@QEBA?AV?$Point_@M@2@HPEAH@Z
?getVoronoiFacetList@Subdiv2D@cv@@QEAAXAEBV?$vector@HV?$allocator@H@std@@@std@@AEAV?$vector@V?$vector@V?$Point_@M@cv@@V?$allocator@V?$Point_@M@cv@@@std@@@std@@V?$allocator@V?$vector@V?$Point_@M@cv@@V?$allocator@V?$Point_@M@cv@@@std@@@std@@@2@@4@AEAV?$vector@V?$Point_@M@cv@@V?$allocator@V?$Point_@M@cv@@@std@@@4@@Z
?goodFeaturesToTrack@cv@@YAXAEBV_InputArray@1@AEBV_OutputArray@1@HNN0HH_NN@Z
?goodFeaturesToTrack@cv@@YAXAEBV_InputArray@1@AEBV_OutputArray@1@HNN0H_NN@Z
?grabCut@cv@@YAXAEBV_InputArray@1@AEBV_InputOutputArray@1@V?$Rect_@H@1@11HH@Z
?hash@SparseMat@cv@@QEBA_KH@Z
?hash@SparseMat@cv@@QEBA_KHH@Z
?hash@SparseMat@cv@@QEBA_KHHH@Z
?hash@SparseMat@cv@@QEBA_KPEBH@Z
?hostCopyObsolete@UMatData@cv@@QEBA_NXZ
?inf@softdouble@cv@@SA?AU12@XZ
?inf@softfloat@cv@@SA?AU12@XZ
?init@_InputArray@cv@@IEAAXHPEBX@Z
?init@_InputArray@cv@@IEAAXHPEBXV?$Size_@H@2@@Z
?initDelaunay@Subdiv2D@cv@@QEAAXV?$Rect_@H@2@@Z
?insert@Subdiv2D@cv@@QEAAHV?$Point_@M@2@@Z
?insert@Subdiv2D@cv@@QEAAXAEBV?$vector@V?$Point_@M@cv@@V?$allocator@V?$Point_@M@cv@@@std@@@std@@@Z
?integral@cv@@YAXAEBV_InputArray@1@AEBV_OutputArray@1@11HH@Z
?integral@cv@@YAXAEBV_InputArray@1@AEBV_OutputArray@1@1HH@Z
?integral@cv@@YAXAEBV_InputArray@1@AEBV_OutputArray@1@H@Z
?integral@hal@cv@@YAXHHHPEBE_KPEAE12121HHH@Z
?intersectConvexConvex@cv@@YAMAEBV_InputArray@1@0AEBV_OutputArray@1@_N@Z
?invertAffineTransform@cv@@YAXAEBV_InputArray@1@AEBV_OutputArray@1@@Z
?isAMD@Device@ocl@cv@@QEBA_NXZ
?isActive@Region@details@trace@utils@cv@@QEBA_NXZ
?isContinuous@Mat@cv@@QEBA_NXZ
?isContinuous@UMat@cv@@QEBA_NXZ
?isContourConvex@cv@@YA_NAEBV_InputArray@1@@Z
?isGpuMat@_InputArray@cv@@QEBA_NXZ
?isGpuMatVector@_InputArray@cv@@QEBA_NXZ
?isInf@softdouble@cv@@QEBA_NXZ
?isInf@softfloat@cv@@QEBA_NXZ
?isIntel@Device@ocl@cv@@QEBA_NXZ
?isMat@_InputArray@cv@@QEBA_NXZ
?isMatVector@_InputArray@cv@@QEBA_NXZ
?isMatx@_InputArray@cv@@QEBA_NXZ
?isNVidia@Device@ocl@cv@@QEBA_NXZ
?isNaN@softdouble@cv@@QEBA_NXZ
?isNaN@softfloat@cv@@QEBA_NXZ
?isRightOf@Subdiv2D@cv@@IEBAHV?$Point_@M@2@H@Z
?isSubmatrix@Mat@cv@@QEBA_NXZ
?isSubmatrix@UMat@cv@@QEBA_NXZ
?isSubnormal@softdouble@cv@@QEBA_NXZ
?isSubnormal@softfloat@cv@@QEBA_NXZ
?isUMat@_InputArray@cv@@QEBA_NXZ
?isUMatVector@_InputArray@cv@@QEBA_NXZ
?isValid@TermCriteria@cv@@QEBA_NXZ
?isVector@_InputArray@cv@@QEBA_NXZ
?isfree@QuadEdge@Subdiv2D@cv@@QEBA_NXZ
?isfree@Vertex@Subdiv2D@cv@@QEBA_NXZ
?isvirtual@Vertex@Subdiv2D@cv@@QEBA_NXZ
?line@cv@@YAXAEBV_InputOutputArray@1@V?$Point_@H@1@1AEBV?$Scalar_@N@1@HHH@Z
?linearPolar@cv@@YAXAEBV_InputArray@1@AEBV_OutputArray@1@V?$Point_@M@1@NH@Z
?locate@Subdiv2D@cv@@QEAAHV?$Point_@M@2@AEAH1@Z
?logPolar@cv@@YAXAEBV_InputArray@1@AEBV_OutputArray@1@V?$Point_@M@1@NH@Z
?markDeviceCopyObsolete@UMatData@cv@@QEAAX_N@Z
?markDeviceMemMapped@UMatData@cv@@QEAAX_N@Z
?markHostCopyObsolete@UMatData@cv@@QEAAX_N@Z
?matchShapes@cv@@YANAEBV_InputArray@1@0HN@Z
?matchTemplate@cv@@YAXAEBV_InputArray@1@0AEBV_OutputArray@1@H0@Z
?max@softdouble@cv@@SA?AU12@XZ
?max@softfloat@cv@@SA?AU12@XZ
?medianBlur@cv@@YAXAEBV_InputArray@1@AEBV_OutputArray@1@H@Z
?min@softdouble@cv@@SA?AU12@XZ
?min@softfloat@cv@@SA?AU12@XZ
?minAreaRect@cv@@YA?AVRotatedRect@1@AEBV_InputArray@1@@Z
?minEnclosingCircle@cv@@YAXAEBV_InputArray@1@AEAV?$Point_@M@1@AEAM@Z
?minEnclosingTriangle@cv@@YANAEBV_InputArray@1@AEBV_OutputArray@1@@Z
?moments@cv@@YA?AVMoments@1@AEBV_InputArray@1@_N@Z
?morph@hal@cv@@YAXHHHPEAE_K01HHHHHHHHHHH01HHHHHQEBNH_N@Z
?morphologyEx@cv@@YAXAEBV_InputArray@1@AEBV_OutputArray@1@H0V?$Point_@H@1@HHAEBV?$Scalar_@N@1@@Z
?nan@softdouble@cv@@SA?AU12@XZ
?nan@softfloat@cv@@SA?AU12@XZ
?newEdge@Subdiv2D@cv@@IEAAHXZ
?newPoint@Subdiv2D@cv@@IEAAHV?$Point_@M@2@_NH@Z
?next@RNG@cv@@QEAAIXZ
?nextEdge@Subdiv2D@cv@@QEBAHH@Z
?node@SparseMat@cv@@QEAAPEAUNode@12@_K@Z
?node@SparseMat@cv@@QEBAPEBUNode@12@_K@Z
?node@SparseMatConstIterator@cv@@QEBAPEBUNode@SparseMat@2@XZ
?node@SparseMatIterator@cv@@QEBAPEAUNode@SparseMat@2@XZ
?nzcount@SparseMat@cv@@QEBA_KXZ
?one@softdouble@cv@@SA?AU12@XZ
?one@softfloat@cv@@SA?AU12@XZ
?phaseCorrelate@cv@@YA?AV?$Point_@N@1@AEBV_InputArray@1@00PEAN@Z
?pi@softdouble@cv@@SA?AU12@XZ
?pi@softfloat@cv@@SA?AU12@XZ
?pointPolygonTest@cv@@YANAEBV_InputArray@1@V?$Point_@M@1@_N@Z
?polylines@cv@@YAXAEBV_InputOutputArray@1@AEBV_InputArray@1@_NAEBV?$Scalar_@N@1@HHH@Z
?polylines@cv@@YAXAEBV_InputOutputArray@1@PEBQEBV?$Point_@H@1@PEBHH_NAEBV?$Scalar_@N@1@HHH@Z
?pos@LineIterator@cv@@QEBA?AV?$Point_@H@2@XZ
?preCornerDetect@cv@@YAXAEBV_InputArray@1@AEBV_OutputArray@1@HH@Z
?ptr@Mat@cv@@QEAAPEAEH@Z
?ptr@Mat@cv@@QEAAPEAEHH@Z
?ptr@Mat@cv@@QEAAPEAEHHH@Z
?ptr@Mat@cv@@QEAAPEAEPEBH@Z
?ptr@Mat@cv@@QEBAPEBEH@Z
?ptr@Mat@cv@@QEBAPEBEHH@Z
?ptr@Mat@cv@@QEBAPEBEHHH@Z
?ptr@Mat@cv@@QEBAPEBEPEBH@Z
?putText@cv@@YAXAEBV_InputOutputArray@1@AEBV?$basic_string@DU?$char_traits@D@std@@V?$allocator@D@2@@std@@V?$Point_@H@1@HNV?$Scalar_@N@1@HH_N@Z
?pyrDown@cv@@YAXAEBV_InputArray@1@AEBV_OutputArray@1@AEBV?$Size_@H@1@H@Z
?pyrMeanShiftFiltering@cv@@YAXAEBV_InputArray@1@AEBV_OutputArray@1@NNHVTermCriteria@1@@Z
?pyrUp@cv@@YAXAEBV_InputArray@1@AEBV_OutputArray@1@AEBV?$Size_@H@1@H@Z
?read@Algorithm@cv@@UEAAXAEBVFileNode@2@@Z
?rectangle@cv@@YAXAEBV_InputOutputArray@1@V?$Point_@H@1@1AEBV?$Scalar_@N@1@HHH@Z
?rectangle@cv@@YAXAEBV_InputOutputArray@1@V?$Rect_@H@1@AEBV?$Scalar_@N@1@HHH@Z
?release@Mat@cv@@QEAAXXZ
?release@SparseMat@cv@@QEAAXXZ
?release@UMat@cv@@QEAAXXZ
?remap@cv@@YAXAEBV_InputArray@1@AEBV_OutputArray@1@00HHAEBV?$Scalar_@N@1@@Z
?reset@TickMeter@cv@@QEAAXXZ
?resize@cv@@YAXAEBV_InputArray@1@AEBV_OutputArray@1@V?$Size_@H@1@NNH@Z
?resize@hal@cv@@YAXHPEBE_KHHPEAE1HHNNH@Z
?rotateEdge@Subdiv2D@cv@@QEBAHHH@Z
?rotatedRectangleIntersection@cv@@YAHAEBVRotatedRect@1@0AEBV_OutputArray@1@@Z
?row@Mat@cv@@QEBA?AV12@H@Z
?row@UMat@cv@@QEBA?AV12@H@Z
?rowRange@Mat@cv@@QEBA?AV12@AEBVRange@2@@Z
?rowRange@Mat@cv@@QEBA?AV12@HH@Z
?rowRange@UMat@cv@@QEBA?AV12@AEBVRange@2@@Z
?rowRange@UMat@cv@@QEBA?AV12@HH@Z
?seekEnd@SparseMatConstIterator@cv@@QEAAXXZ
?sepFilter2D@cv@@YAXAEBV_InputArray@1@AEBV_OutputArray@1@H00V?$Point_@H@1@NH@Z
?sepFilter2D@hal@cv@@YAXHHHPEAE_K01HHHHHH0H0HHHNH@Z
?setEdgePoints@Subdiv2D@cv@@IEAAXHHH@Z
?setExp@softdouble@cv@@QEBA?AU12@H@Z
?setExp@softfloat@cv@@QEBA?AU12@H@Z
?setFrac@softdouble@cv@@QEBA?AU12@AEBU12@@Z
?setFrac@softfloat@cv@@QEBA?AU12@AEBU12@@Z
?setSign@softdouble@cv@@QEBA?AU12@_N@Z
?setSign@softfloat@cv@@QEBA?AU12@_N@Z
?size@Range@cv@@QEBAHXZ
?size@SparseMat@cv@@QEBAHH@Z
?size@SparseMat@cv@@QEBAPEBHXZ
?solveZ@SVD@cv@@SAXAEBV_InputArray@2@AEBV_OutputArray@2@@Z
?spatialGradient@cv@@YAXAEBV_InputArray@1@AEBV_OutputArray@1@1HH@Z
?splice@Subdiv2D@cv@@IEAAXHH@Z
?sqrBoxFilter@cv@@YAXAEBV_InputArray@1@AEBV_OutputArray@1@HV?$Size_@H@1@V?$Point_@H@1@_NH@Z
?start@TickMeter@cv@@QEAAXXZ
?step1@Mat@cv@@QEBA_KH@Z
?step1@UMat@cv@@QEBA_KH@Z
?stop@TickMeter@cv@@QEAAXXZ
?swapEdges@Subdiv2D@cv@@IEAAXH@Z
?symEdge@Subdiv2D@cv@@QEBAHH@Z
?tempCopiedUMat@UMatData@cv@@QEBA_NXZ
?tempUMat@UMatData@cv@@QEBA_NXZ
?threshold@cv@@YANAEBV_InputArray@1@AEBV_OutputArray@1@NNH@Z
?total@Mat@cv@@QEBA_KHH@Z
?total@Mat@cv@@QEBA_KXZ
?total@UMat@cv@@QEBA_KXZ
?type@Mat@cv@@QEBAHXZ
?type@SparseMat@cv@@QEBAHXZ
?type@UMat@cv@@QEBAHXZ
?uniform@RNG@cv@@QEAAHHH@Z
?uniform@RNG@cv@@QEAAMMM@Z
?uniform@RNG@cv@@QEAANNN@Z
?warpAffine@cv@@YAXAEBV_InputArray@1@AEBV_OutputArray@1@0V?$Size_@H@1@HHAEBV?$Scalar_@N@1@@Z
?warpAffine@hal@cv@@YAXHPEBE_KHHPEAE1HHQEBNHH3@Z
?warpPerspective@cv@@YAXAEBV_InputArray@1@AEBV_OutputArray@1@0V?$Size_@H@1@HHAEBV?$Scalar_@N@1@@Z
?warpPerspective@hal@cv@@YAXHPEBE_KHHPEAE1HHQEBNHH3@Z
?warpPolar@cv@@YAXAEBV_InputArray@1@AEBV_OutputArray@1@V?$Size_@H@1@V?$Point_@M@1@NH@Z
?watershed@cv@@YAXAEBV_InputArray@1@AEBV_InputOutputArray@1@@Z
?wrapperEMD@cv@@YAMAEBV_InputArray@1@0H0U?$Ptr@M@1@AEBV_OutputArray@1@@Z
?write@Algorithm@cv@@UEBAXAEAVFileStorage@2@@Z
?zero@softdouble@cv@@SA?AU12@XZ
?zero@softfloat@cv@@SA?AU12@XZ
cv2DRotationMatrix
cvAcc
cvAdaptiveThreshold
cvApproxChains
cvApproxPoly
cvArcLength
cvBoundingRect
cvBoxPoints
cvCalcArrBackProject
cvCalcArrBackProjectPatch
cvCalcArrHist
cvCalcBayesianProb
cvCalcEMD2
cvCalcProbDensity
cvCanny
cvCheckContourConvexity
cvCircle
cvClearHist
cvClipLine
cvColorToScalar
cvCompareHist
cvContourArea
cvConvertMaps
cvConvexHull2
cvConvexityDefects
cvCopyHist
cvCopyMakeBorder
cvCornerEigenValsAndVecs
cvCornerHarris
cvCornerMinEigenVal
cvCreateHist
cvCreatePyramid
cvCreateStructuringElementEx
cvCvtColor
cvDilate
cvDistTransform
cvDrawContours
cvEllipse
cvEllipse2Poly
cvEndFindContours
cvEqualizeHist
cvErode
cvFillConvexPoly
cvFillPoly
cvFilter2D
cvFindContours
cvFindCornerSubPix
cvFindNextContour
cvFitEllipse2
cvFitLine
cvFloodFill
cvGetAffineTransform
cvGetCentralMoment
cvGetHuMoments
cvGetMinMaxHistValue
cvGetNormalizedCentralMoment
cvGetPerspectiveTransform
cvGetQuadrangleSubPix
cvGetRectSubPix
cvGetSpatialMoment
cvGetTextSize
cvGoodFeaturesToTrack
cvHoughCircles
cvHoughLines2
cvInitFont
cvInitLineIterator
cvIntegral
cvLaplace
cvLine
cvLinearPolar
cvLogPolar
cvMakeHistHeaderForArray
cvMatchShapes
cvMatchTemplate
cvMaxRect
cvMinAreaRect2
cvMinEnclosingCircle
cvMoments
cvMorphologyEx
cvMultiplyAcc
cvNormalizeHist
cvPointPolygonTest
cvPointSeqFromMat
cvPolyLine
cvPreCornerDetect
cvPutText
cvPyrDown
cvPyrMeanShiftFiltering
cvPyrUp
cvReadChainPoint
cvRectangle
cvRectangleR
cvReleaseHist
cvReleasePyramid
cvReleaseStructuringElement
cvRemap
cvResize
cvRunningAvg
cvSampleLine
cvSetHistBinRanges
cvSmooth
cvSobel
cvSquareAcc
cvStartFindContours
cvStartReadChainPoints
cvSubstituteContour
cvThreshHist
cvThreshold
cvWarpAffine
cvWarpPerspective
cvWatershed
